
ds18d20_driver.elf:     file format elf32-littlearm

Sections:
Idx Name          Size      VMA       LMA       File off  Algn
  0 .isr_vector   000001c4  08000000  08000000  00010000  2**0
                  CONTENTS, ALLOC, LOAD, READONLY, DATA
  1 .text         00002268  080001c8  080001c8  000101c8  2**3
                  CONTENTS, ALLOC, LOAD, READONLY, CODE
  2 .rodata       00000010  08002430  08002430  00012430  2**2
                  CONTENTS, ALLOC, LOAD, READONLY, DATA
  3 .ARM.extab    00000000  08002440  08002440  0002000c  2**0
                  CONTENTS
  4 .ARM          00000008  08002440  08002440  00012440  2**2
                  CONTENTS, ALLOC, LOAD, READONLY, DATA
  5 .preinit_array 00000000  08002448  08002448  0002000c  2**0
                  CONTENTS, ALLOC, LOAD, DATA
  6 .init_array   00000004  08002448  08002448  00012448  2**2
                  CONTENTS, ALLOC, LOAD, DATA
  7 .fini_array   00000004  0800244c  0800244c  0001244c  2**2
                  CONTENTS, ALLOC, LOAD, DATA
  8 .data         0000000c  20000000  08002450  00020000  2**2
                  CONTENTS, ALLOC, LOAD, DATA
  9 .bss          00000068  2000000c  0800245c  0002000c  2**2
                  ALLOC
 10 ._user_heap_stack 00000604  20000074  0800245c  00020074  2**0
                  ALLOC
 11 .ARM.attributes 00000030  00000000  00000000  0002000c  2**0
                  CONTENTS, READONLY
 12 .debug_info   0000933e  00000000  00000000  0002003c  2**0
                  CONTENTS, READONLY, DEBUGGING
 13 .debug_abbrev 00001812  00000000  00000000  0002937a  2**0
                  CONTENTS, READONLY, DEBUGGING
 14 .debug_aranges 00000a28  00000000  00000000  0002ab90  2**3
                  CONTENTS, READONLY, DEBUGGING
 15 .debug_ranges 00000950  00000000  00000000  0002b5b8  2**3
                  CONTENTS, READONLY, DEBUGGING
 16 .debug_macro  00020be2  00000000  00000000  0002bf08  2**0
                  CONTENTS, READONLY, DEBUGGING
 17 .debug_line   00007e96  00000000  00000000  0004caea  2**0
                  CONTENTS, READONLY, DEBUGGING
 18 .debug_str    000c8c3e  00000000  00000000  00054980  2**0
                  CONTENTS, READONLY, DEBUGGING
 19 .comment      0000007b  00000000  00000000  0011d5be  2**0
                  CONTENTS, READONLY
 20 .debug_frame  000029a8  00000000  00000000  0011d63c  2**2
                  CONTENTS, READONLY, DEBUGGING

Disassembly of section .text:

080001c8 <__do_global_dtors_aux>:
 80001c8:	b510      	push	{r4, lr}
 80001ca:	4c05      	ldr	r4, [pc, #20]	; (80001e0 <__do_global_dtors_aux+0x18>)
 80001cc:	7823      	ldrb	r3, [r4, #0]
 80001ce:	b933      	cbnz	r3, 80001de <__do_global_dtors_aux+0x16>
 80001d0:	4b04      	ldr	r3, [pc, #16]	; (80001e4 <__do_global_dtors_aux+0x1c>)
 80001d2:	b113      	cbz	r3, 80001da <__do_global_dtors_aux+0x12>
 80001d4:	4804      	ldr	r0, [pc, #16]	; (80001e8 <__do_global_dtors_aux+0x20>)
 80001d6:	f3af 8000 	nop.w
 80001da:	2301      	movs	r3, #1
 80001dc:	7023      	strb	r3, [r4, #0]
 80001de:	bd10      	pop	{r4, pc}
 80001e0:	2000000c 	.word	0x2000000c
 80001e4:	00000000 	.word	0x00000000
 80001e8:	08002418 	.word	0x08002418

080001ec <frame_dummy>:
 80001ec:	b508      	push	{r3, lr}
 80001ee:	4b03      	ldr	r3, [pc, #12]	; (80001fc <frame_dummy+0x10>)
 80001f0:	b11b      	cbz	r3, 80001fa <frame_dummy+0xe>
 80001f2:	4903      	ldr	r1, [pc, #12]	; (8000200 <frame_dummy+0x14>)
 80001f4:	4803      	ldr	r0, [pc, #12]	; (8000204 <frame_dummy+0x18>)
 80001f6:	f3af 8000 	nop.w
 80001fa:	bd08      	pop	{r3, pc}
 80001fc:	00000000 	.word	0x00000000
 8000200:	20000010 	.word	0x20000010
 8000204:	08002418 	.word	0x08002418

08000208 <__aeabi_uldivmod>:
 8000208:	b953      	cbnz	r3, 8000220 <__aeabi_uldivmod+0x18>
 800020a:	b94a      	cbnz	r2, 8000220 <__aeabi_uldivmod+0x18>
 800020c:	2900      	cmp	r1, #0
 800020e:	bf08      	it	eq
 8000210:	2800      	cmpeq	r0, #0
 8000212:	bf1c      	itt	ne
 8000214:	f04f 31ff 	movne.w	r1, #4294967295	; 0xffffffff
 8000218:	f04f 30ff 	movne.w	r0, #4294967295	; 0xffffffff
 800021c:	f000 b972 	b.w	8000504 <__aeabi_idiv0>
 8000220:	f1ad 0c08 	sub.w	ip, sp, #8
 8000224:	e96d ce04 	strd	ip, lr, [sp, #-16]!
 8000228:	f000 f806 	bl	8000238 <__udivmoddi4>
 800022c:	f8dd e004 	ldr.w	lr, [sp, #4]
 8000230:	e9dd 2302 	ldrd	r2, r3, [sp, #8]
 8000234:	b004      	add	sp, #16
 8000236:	4770      	bx	lr

08000238 <__udivmoddi4>:
 8000238:	e92d 47f0 	stmdb	sp!, {r4, r5, r6, r7, r8, r9, sl, lr}
 800023c:	9e08      	ldr	r6, [sp, #32]
 800023e:	4604      	mov	r4, r0
 8000240:	4688      	mov	r8, r1
 8000242:	2b00      	cmp	r3, #0
 8000244:	d14b      	bne.n	80002de <__udivmoddi4+0xa6>
 8000246:	428a      	cmp	r2, r1
 8000248:	4615      	mov	r5, r2
 800024a:	d967      	bls.n	800031c <__udivmoddi4+0xe4>
 800024c:	fab2 f282 	clz	r2, r2
 8000250:	b14a      	cbz	r2, 8000266 <__udivmoddi4+0x2e>
 8000252:	f1c2 0720 	rsb	r7, r2, #32
 8000256:	fa01 f302 	lsl.w	r3, r1, r2
 800025a:	fa20 f707 	lsr.w	r7, r0, r7
 800025e:	4095      	lsls	r5, r2
 8000260:	ea47 0803 	orr.w	r8, r7, r3
 8000264:	4094      	lsls	r4, r2
 8000266:	ea4f 4e15 	mov.w	lr, r5, lsr #16
 800026a:	0c23      	lsrs	r3, r4, #16
 800026c:	fbb8 f7fe 	udiv	r7, r8, lr
 8000270:	fa1f fc85 	uxth.w	ip, r5
 8000274:	fb0e 8817 	mls	r8, lr, r7, r8
 8000278:	ea43 4308 	orr.w	r3, r3, r8, lsl #16
 800027c:	fb07 f10c 	mul.w	r1, r7, ip
 8000280:	4299      	cmp	r1, r3
 8000282:	d909      	bls.n	8000298 <__udivmoddi4+0x60>
 8000284:	18eb      	adds	r3, r5, r3
 8000286:	f107 30ff 	add.w	r0, r7, #4294967295	; 0xffffffff
 800028a:	f080 811b 	bcs.w	80004c4 <__udivmoddi4+0x28c>
 800028e:	4299      	cmp	r1, r3
 8000290:	f240 8118 	bls.w	80004c4 <__udivmoddi4+0x28c>
 8000294:	3f02      	subs	r7, #2
 8000296:	442b      	add	r3, r5
 8000298:	1a5b      	subs	r3, r3, r1
 800029a:	b2a4      	uxth	r4, r4
 800029c:	fbb3 f0fe 	udiv	r0, r3, lr
 80002a0:	fb0e 3310 	mls	r3, lr, r0, r3
 80002a4:	ea44 4403 	orr.w	r4, r4, r3, lsl #16
 80002a8:	fb00 fc0c 	mul.w	ip, r0, ip
 80002ac:	45a4      	cmp	ip, r4
 80002ae:	d909      	bls.n	80002c4 <__udivmoddi4+0x8c>
 80002b0:	192c      	adds	r4, r5, r4
 80002b2:	f100 33ff 	add.w	r3, r0, #4294967295	; 0xffffffff
 80002b6:	f080 8107 	bcs.w	80004c8 <__udivmoddi4+0x290>
 80002ba:	45a4      	cmp	ip, r4
 80002bc:	f240 8104 	bls.w	80004c8 <__udivmoddi4+0x290>
 80002c0:	3802      	subs	r0, #2
 80002c2:	442c      	add	r4, r5
 80002c4:	ea40 4007 	orr.w	r0, r0, r7, lsl #16
 80002c8:	eba4 040c 	sub.w	r4, r4, ip
 80002cc:	2700      	movs	r7, #0
 80002ce:	b11e      	cbz	r6, 80002d8 <__udivmoddi4+0xa0>
 80002d0:	40d4      	lsrs	r4, r2
 80002d2:	2300      	movs	r3, #0
 80002d4:	e9c6 4300 	strd	r4, r3, [r6]
 80002d8:	4639      	mov	r1, r7
 80002da:	e8bd 87f0 	ldmia.w	sp!, {r4, r5, r6, r7, r8, r9, sl, pc}
 80002de:	428b      	cmp	r3, r1
 80002e0:	d909      	bls.n	80002f6 <__udivmoddi4+0xbe>
 80002e2:	2e00      	cmp	r6, #0
 80002e4:	f000 80eb 	beq.w	80004be <__udivmoddi4+0x286>
 80002e8:	2700      	movs	r7, #0
 80002ea:	e9c6 0100 	strd	r0, r1, [r6]
 80002ee:	4638      	mov	r0, r7
 80002f0:	4639      	mov	r1, r7
 80002f2:	e8bd 87f0 	ldmia.w	sp!, {r4, r5, r6, r7, r8, r9, sl, pc}
 80002f6:	fab3 f783 	clz	r7, r3
 80002fa:	2f00      	cmp	r7, #0
 80002fc:	d147      	bne.n	800038e <__udivmoddi4+0x156>
 80002fe:	428b      	cmp	r3, r1
 8000300:	d302      	bcc.n	8000308 <__udivmoddi4+0xd0>
 8000302:	4282      	cmp	r2, r0
 8000304:	f200 80fa 	bhi.w	80004fc <__udivmoddi4+0x2c4>
 8000308:	1a84      	subs	r4, r0, r2
 800030a:	eb61 0303 	sbc.w	r3, r1, r3
 800030e:	2001      	movs	r0, #1
 8000310:	4698      	mov	r8, r3
 8000312:	2e00      	cmp	r6, #0
 8000314:	d0e0      	beq.n	80002d8 <__udivmoddi4+0xa0>
 8000316:	e9c6 4800 	strd	r4, r8, [r6]
 800031a:	e7dd      	b.n	80002d8 <__udivmoddi4+0xa0>
 800031c:	b902      	cbnz	r2, 8000320 <__udivmoddi4+0xe8>
 800031e:	deff      	udf	#255	; 0xff
 8000320:	fab2 f282 	clz	r2, r2
 8000324:	2a00      	cmp	r2, #0
 8000326:	f040 808f 	bne.w	8000448 <__udivmoddi4+0x210>
 800032a:	1b49      	subs	r1, r1, r5
 800032c:	ea4f 4e15 	mov.w	lr, r5, lsr #16
 8000330:	fa1f f885 	uxth.w	r8, r5
 8000334:	2701      	movs	r7, #1
 8000336:	fbb1 fcfe 	udiv	ip, r1, lr
 800033a:	0c23      	lsrs	r3, r4, #16
 800033c:	fb0e 111c 	mls	r1, lr, ip, r1
 8000340:	ea43 4301 	orr.w	r3, r3, r1, lsl #16
 8000344:	fb08 f10c 	mul.w	r1, r8, ip
 8000348:	4299      	cmp	r1, r3
 800034a:	d907      	bls.n	800035c <__udivmoddi4+0x124>
 800034c:	18eb      	adds	r3, r5, r3
 800034e:	f10c 30ff 	add.w	r0, ip, #4294967295	; 0xffffffff
 8000352:	d202      	bcs.n	800035a <__udivmoddi4+0x122>
 8000354:	4299      	cmp	r1, r3
 8000356:	f200 80cd 	bhi.w	80004f4 <__udivmoddi4+0x2bc>
 800035a:	4684      	mov	ip, r0
 800035c:	1a59      	subs	r1, r3, r1
 800035e:	b2a3      	uxth	r3, r4
 8000360:	fbb1 f0fe 	udiv	r0, r1, lr
 8000364:	fb0e 1410 	mls	r4, lr, r0, r1
 8000368:	ea43 4404 	orr.w	r4, r3, r4, lsl #16
 800036c:	fb08 f800 	mul.w	r8, r8, r0
 8000370:	45a0      	cmp	r8, r4
 8000372:	d907      	bls.n	8000384 <__udivmoddi4+0x14c>
 8000374:	192c      	adds	r4, r5, r4
 8000376:	f100 33ff 	add.w	r3, r0, #4294967295	; 0xffffffff
 800037a:	d202      	bcs.n	8000382 <__udivmoddi4+0x14a>
 800037c:	45a0      	cmp	r8, r4
 800037e:	f200 80b6 	bhi.w	80004ee <__udivmoddi4+0x2b6>
 8000382:	4618      	mov	r0, r3
 8000384:	eba4 0408 	sub.w	r4, r4, r8
 8000388:	ea40 400c 	orr.w	r0, r0, ip, lsl #16
 800038c:	e79f      	b.n	80002ce <__udivmoddi4+0x96>
 800038e:	f1c7 0c20 	rsb	ip, r7, #32
 8000392:	40bb      	lsls	r3, r7
 8000394:	fa22 fe0c 	lsr.w	lr, r2, ip
 8000398:	ea4e 0e03 	orr.w	lr, lr, r3
 800039c:	fa01 f407 	lsl.w	r4, r1, r7
 80003a0:	fa20 f50c 	lsr.w	r5, r0, ip
 80003a4:	fa21 f30c 	lsr.w	r3, r1, ip
 80003a8:	ea4f 481e 	mov.w	r8, lr, lsr #16
 80003ac:	4325      	orrs	r5, r4
 80003ae:	fbb3 f9f8 	udiv	r9, r3, r8
 80003b2:	0c2c      	lsrs	r4, r5, #16
 80003b4:	fb08 3319 	mls	r3, r8, r9, r3
 80003b8:	fa1f fa8e 	uxth.w	sl, lr
 80003bc:	ea44 4303 	orr.w	r3, r4, r3, lsl #16
 80003c0:	fb09 f40a 	mul.w	r4, r9, sl
 80003c4:	429c      	cmp	r4, r3
 80003c6:	fa02 f207 	lsl.w	r2, r2, r7
 80003ca:	fa00 f107 	lsl.w	r1, r0, r7
 80003ce:	d90b      	bls.n	80003e8 <__udivmoddi4+0x1b0>
 80003d0:	eb1e 0303 	adds.w	r3, lr, r3
 80003d4:	f109 30ff 	add.w	r0, r9, #4294967295	; 0xffffffff
 80003d8:	f080 8087 	bcs.w	80004ea <__udivmoddi4+0x2b2>
 80003dc:	429c      	cmp	r4, r3
 80003de:	f240 8084 	bls.w	80004ea <__udivmoddi4+0x2b2>
 80003e2:	f1a9 0902 	sub.w	r9, r9, #2
 80003e6:	4473      	add	r3, lr
 80003e8:	1b1b      	subs	r3, r3, r4
 80003ea:	b2ad      	uxth	r5, r5
 80003ec:	fbb3 f0f8 	udiv	r0, r3, r8
 80003f0:	fb08 3310 	mls	r3, r8, r0, r3
 80003f4:	ea45 4403 	orr.w	r4, r5, r3, lsl #16
 80003f8:	fb00 fa0a 	mul.w	sl, r0, sl
 80003fc:	45a2      	cmp	sl, r4
 80003fe:	d908      	bls.n	8000412 <__udivmoddi4+0x1da>
 8000400:	eb1e 0404 	adds.w	r4, lr, r4
 8000404:	f100 33ff 	add.w	r3, r0, #4294967295	; 0xffffffff
 8000408:	d26b      	bcs.n	80004e2 <__udivmoddi4+0x2aa>
 800040a:	45a2      	cmp	sl, r4
 800040c:	d969      	bls.n	80004e2 <__udivmoddi4+0x2aa>
 800040e:	3802      	subs	r0, #2
 8000410:	4474      	add	r4, lr
 8000412:	ea40 4009 	orr.w	r0, r0, r9, lsl #16
 8000416:	fba0 8902 	umull	r8, r9, r0, r2
 800041a:	eba4 040a 	sub.w	r4, r4, sl
 800041e:	454c      	cmp	r4, r9
 8000420:	46c2      	mov	sl, r8
 8000422:	464b      	mov	r3, r9
 8000424:	d354      	bcc.n	80004d0 <__udivmoddi4+0x298>
 8000426:	d051      	beq.n	80004cc <__udivmoddi4+0x294>
 8000428:	2e00      	cmp	r6, #0
 800042a:	d069      	beq.n	8000500 <__udivmoddi4+0x2c8>
 800042c:	ebb1 050a 	subs.w	r5, r1, sl
 8000430:	eb64 0403 	sbc.w	r4, r4, r3
 8000434:	fa04 fc0c 	lsl.w	ip, r4, ip
 8000438:	40fd      	lsrs	r5, r7
 800043a:	40fc      	lsrs	r4, r7
 800043c:	ea4c 0505 	orr.w	r5, ip, r5
 8000440:	e9c6 5400 	strd	r5, r4, [r6]
 8000444:	2700      	movs	r7, #0
 8000446:	e747      	b.n	80002d8 <__udivmoddi4+0xa0>
 8000448:	f1c2 0320 	rsb	r3, r2, #32
 800044c:	fa20 f703 	lsr.w	r7, r0, r3
 8000450:	4095      	lsls	r5, r2
 8000452:	fa01 f002 	lsl.w	r0, r1, r2
 8000456:	fa21 f303 	lsr.w	r3, r1, r3
 800045a:	ea4f 4e15 	mov.w	lr, r5, lsr #16
 800045e:	4338      	orrs	r0, r7
 8000460:	0c01      	lsrs	r1, r0, #16
 8000462:	fbb3 f7fe 	udiv	r7, r3, lr
 8000466:	fa1f f885 	uxth.w	r8, r5
 800046a:	fb0e 3317 	mls	r3, lr, r7, r3
 800046e:	ea41 4103 	orr.w	r1, r1, r3, lsl #16
 8000472:	fb07 f308 	mul.w	r3, r7, r8
 8000476:	428b      	cmp	r3, r1
 8000478:	fa04 f402 	lsl.w	r4, r4, r2
 800047c:	d907      	bls.n	800048e <__udivmoddi4+0x256>
 800047e:	1869      	adds	r1, r5, r1
 8000480:	f107 3cff 	add.w	ip, r7, #4294967295	; 0xffffffff
 8000484:	d22f      	bcs.n	80004e6 <__udivmoddi4+0x2ae>
 8000486:	428b      	cmp	r3, r1
 8000488:	d92d      	bls.n	80004e6 <__udivmoddi4+0x2ae>
 800048a:	3f02      	subs	r7, #2
 800048c:	4429      	add	r1, r5
 800048e:	1acb      	subs	r3, r1, r3
 8000490:	b281      	uxth	r1, r0
 8000492:	fbb3 f0fe 	udiv	r0, r3, lr
 8000496:	fb0e 3310 	mls	r3, lr, r0, r3
 800049a:	ea41 4103 	orr.w	r1, r1, r3, lsl #16
 800049e:	fb00 f308 	mul.w	r3, r0, r8
 80004a2:	428b      	cmp	r3, r1
 80004a4:	d907      	bls.n	80004b6 <__udivmoddi4+0x27e>
 80004a6:	1869      	adds	r1, r5, r1
 80004a8:	f100 3cff 	add.w	ip, r0, #4294967295	; 0xffffffff
 80004ac:	d217      	bcs.n	80004de <__udivmoddi4+0x2a6>
 80004ae:	428b      	cmp	r3, r1
 80004b0:	d915      	bls.n	80004de <__udivmoddi4+0x2a6>
 80004b2:	3802      	subs	r0, #2
 80004b4:	4429      	add	r1, r5
 80004b6:	1ac9      	subs	r1, r1, r3
 80004b8:	ea40 4707 	orr.w	r7, r0, r7, lsl #16
 80004bc:	e73b      	b.n	8000336 <__udivmoddi4+0xfe>
 80004be:	4637      	mov	r7, r6
 80004c0:	4630      	mov	r0, r6
 80004c2:	e709      	b.n	80002d8 <__udivmoddi4+0xa0>
 80004c4:	4607      	mov	r7, r0
 80004c6:	e6e7      	b.n	8000298 <__udivmoddi4+0x60>
 80004c8:	4618      	mov	r0, r3
 80004ca:	e6fb      	b.n	80002c4 <__udivmoddi4+0x8c>
 80004cc:	4541      	cmp	r1, r8
 80004ce:	d2ab      	bcs.n	8000428 <__udivmoddi4+0x1f0>
 80004d0:	ebb8 0a02 	subs.w	sl, r8, r2
 80004d4:	eb69 020e 	sbc.w	r2, r9, lr
 80004d8:	3801      	subs	r0, #1
 80004da:	4613      	mov	r3, r2
 80004dc:	e7a4      	b.n	8000428 <__udivmoddi4+0x1f0>
 80004de:	4660      	mov	r0, ip
 80004e0:	e7e9      	b.n	80004b6 <__udivmoddi4+0x27e>
 80004e2:	4618      	mov	r0, r3
 80004e4:	e795      	b.n	8000412 <__udivmoddi4+0x1da>
 80004e6:	4667      	mov	r7, ip
 80004e8:	e7d1      	b.n	800048e <__udivmoddi4+0x256>
 80004ea:	4681      	mov	r9, r0
 80004ec:	e77c      	b.n	80003e8 <__udivmoddi4+0x1b0>
 80004ee:	3802      	subs	r0, #2
 80004f0:	442c      	add	r4, r5
 80004f2:	e747      	b.n	8000384 <__udivmoddi4+0x14c>
 80004f4:	f1ac 0c02 	sub.w	ip, ip, #2
 80004f8:	442b      	add	r3, r5
 80004fa:	e72f      	b.n	800035c <__udivmoddi4+0x124>
 80004fc:	4638      	mov	r0, r7
 80004fe:	e708      	b.n	8000312 <__udivmoddi4+0xda>
 8000500:	4637      	mov	r7, r6
 8000502:	e6e9      	b.n	80002d8 <__udivmoddi4+0xa0>

08000504 <__aeabi_idiv0>:
 8000504:	4770      	bx	lr
 8000506:	bf00      	nop

08000508 <MX_TIM1_Init>:
 *
 * @Note              -  this is generated with MX cube and modified to meet requirements

 */
uint8_t MX_TIM1_Init(TIM_HandleTypeDef *pHtim1)
{
 8000508:	b580      	push	{r7, lr}
 800050a:	b088      	sub	sp, #32
 800050c:	af00      	add	r7, sp, #0
 800050e:	6078      	str	r0, [r7, #4]

  /* USER CODE BEGIN TIM1_Init 0 */

  /* USER CODE END TIM1_Init 0 */

  TIM_ClockConfigTypeDef sClockSourceConfig = {0};
 8000510:	f107 0310 	add.w	r3, r7, #16
 8000514:	2200      	movs	r2, #0
 8000516:	601a      	str	r2, [r3, #0]
 8000518:	605a      	str	r2, [r3, #4]
 800051a:	609a      	str	r2, [r3, #8]
 800051c:	60da      	str	r2, [r3, #12]
  TIM_MasterConfigTypeDef sMasterConfig = {0};
 800051e:	f107 0308 	add.w	r3, r7, #8
 8000522:	2200      	movs	r2, #0
 8000524:	601a      	str	r2, [r3, #0]
 8000526:	605a      	str	r2, [r3, #4]

  /* USER CODE BEGIN TIM1_Init 1 */

  /* USER CODE END TIM1_Init 1 */
  pHtim1->Instance = TIM1;
 8000528:	687b      	ldr	r3, [r7, #4]
 800052a:	4a1f      	ldr	r2, [pc, #124]	; (80005a8 <MX_TIM1_Init+0xa0>)
 800052c:	601a      	str	r2, [r3, #0]
  pHtim1->Init.Prescaler = 84-1;
 800052e:	687b      	ldr	r3, [r7, #4]
 8000530:	2253      	movs	r2, #83	; 0x53
 8000532:	605a      	str	r2, [r3, #4]
  pHtim1->Init.CounterMode = TIM_COUNTERMODE_UP;
 8000534:	687b      	ldr	r3, [r7, #4]
 8000536:	2200      	movs	r2, #0
 8000538:	609a      	str	r2, [r3, #8]
  pHtim1->Init.Period = 0xffff-1;
 800053a:	687b      	ldr	r3, [r7, #4]
 800053c:	f64f 72fe 	movw	r2, #65534	; 0xfffe
 8000540:	60da      	str	r2, [r3, #12]
  pHtim1->Init.ClockDivision = TIM_CLOCKDIVISION_DIV1;
 8000542:	687b      	ldr	r3, [r7, #4]
 8000544:	2200      	movs	r2, #0
 8000546:	611a      	str	r2, [r3, #16]
  pHtim1->Init.RepetitionCounter = 0;
 8000548:	687b      	ldr	r3, [r7, #4]
 800054a:	2200      	movs	r2, #0
 800054c:	615a      	str	r2, [r3, #20]
  pHtim1->Init.AutoReloadPreload = TIM_AUTORELOAD_PRELOAD_DISABLE;
 800054e:	687b      	ldr	r3, [r7, #4]
 8000550:	2200      	movs	r2, #0
 8000552:	619a      	str	r2, [r3, #24]
  if (HAL_TIM_Base_Init(pHtim1) != HAL_OK)
 8000554:	6878      	ldr	r0, [r7, #4]
 8000556:	f001 fc77 	bl	8001e48 <HAL_TIM_Base_Init>
 800055a:	4603      	mov	r3, r0
 800055c:	2b00      	cmp	r3, #0
 800055e:	d001      	beq.n	8000564 <MX_TIM1_Init+0x5c>
  {
    return 0;
 8000560:	2300      	movs	r3, #0
 8000562:	e01d      	b.n	80005a0 <MX_TIM1_Init+0x98>
  }
  sClockSourceConfig.ClockSource = TIM_CLOCKSOURCE_INTERNAL;
 8000564:	f44f 5380 	mov.w	r3, #4096	; 0x1000
 8000568:	613b      	str	r3, [r7, #16]
  if (HAL_TIM_ConfigClockSource(pHtim1, &sClockSourceConfig) != HAL_OK)
 800056a:	f107 0310 	add.w	r3, r7, #16
 800056e:	4619      	mov	r1, r3
 8000570:	6878      	ldr	r0, [r7, #4]
 8000572:	f001 fcb8 	bl	8001ee6 <HAL_TIM_ConfigClockSource>
 8000576:	4603      	mov	r3, r0
 8000578:	2b00      	cmp	r3, #0
 800057a:	d001      	beq.n	8000580 <MX_TIM1_Init+0x78>
  {
	  return 0;
 800057c:	2300      	movs	r3, #0
 800057e:	e00f      	b.n	80005a0 <MX_TIM1_Init+0x98>
  }
  sMasterConfig.MasterOutputTrigger = TIM_TRGO_RESET;
 8000580:	2300      	movs	r3, #0
 8000582:	60bb      	str	r3, [r7, #8]
  sMasterConfig.MasterSlaveMode = TIM_MASTERSLAVEMODE_DISABLE;
 8000584:	2300      	movs	r3, #0
 8000586:	60fb      	str	r3, [r7, #12]
  if (HAL_TIMEx_MasterConfigSynchronization(pHtim1, &sMasterConfig) != HAL_OK)
 8000588:	f107 0308 	add.w	r3, r7, #8
 800058c:	4619      	mov	r1, r3
 800058e:	6878      	ldr	r0, [r7, #4]
 8000590:	f001 fe9a 	bl	80022c8 <HAL_TIMEx_MasterConfigSynchronization>
 8000594:	4603      	mov	r3, r0
 8000596:	2b00      	cmp	r3, #0
 8000598:	d001      	beq.n	800059e <MX_TIM1_Init+0x96>
  {
	  return 0;
 800059a:	2300      	movs	r3, #0
 800059c:	e000      	b.n	80005a0 <MX_TIM1_Init+0x98>
  }
  /* USER CODE BEGIN TIM1_Init 2 */

  /* USER CODE END TIM1_Init 2 */
  return 1;
 800059e:	2301      	movs	r3, #1
}
 80005a0:	4618      	mov	r0, r3
 80005a2:	3720      	adds	r7, #32
 80005a4:	46bd      	mov	sp, r7
 80005a6:	bd80      	pop	{r7, pc}
 80005a8:	40010000 	.word	0x40010000

080005ac <Delay_us>:
 *
 * @Note              -  tested with salea logic analyzer, works good enough (1-3 microseconds variability)

 */
void Delay_us (uint32_t u_seconds)
{
 80005ac:	b480      	push	{r7}
 80005ae:	b093      	sub	sp, #76	; 0x4c
 80005b0:	af00      	add	r7, sp, #0
 80005b2:	6078      	str	r0, [r7, #4]
	TIM_HandleTypeDef htim1;
	htim1.Instance = TIM1;
 80005b4:	4b08      	ldr	r3, [pc, #32]	; (80005d8 <Delay_us+0x2c>)
 80005b6:	60bb      	str	r3, [r7, #8]

	__HAL_TIM_SET_COUNTER(&htim1, 0);			//this func starts counter at 0 and waits until its greater than u_seconds parameter
 80005b8:	68bb      	ldr	r3, [r7, #8]
 80005ba:	2200      	movs	r2, #0
 80005bc:	625a      	str	r2, [r3, #36]	; 0x24
	while(__HAL_TIM_GET_COUNTER(&htim1) < u_seconds);
 80005be:	bf00      	nop
 80005c0:	68bb      	ldr	r3, [r7, #8]
 80005c2:	6a5b      	ldr	r3, [r3, #36]	; 0x24
 80005c4:	687a      	ldr	r2, [r7, #4]
 80005c6:	429a      	cmp	r2, r3
 80005c8:	d8fa      	bhi.n	80005c0 <Delay_us+0x14>
}
 80005ca:	bf00      	nop
 80005cc:	374c      	adds	r7, #76	; 0x4c
 80005ce:	46bd      	mov	sp, r7
 80005d0:	f85d 7b04 	ldr.w	r7, [sp], #4
 80005d4:	4770      	bx	lr
 80005d6:	bf00      	nop
 80005d8:	40010000 	.word	0x40010000

080005dc <Ds18b20_init_phase>:
 *
 * @Note              -  none

 */
uint8_t Ds18b20_init_phase(DS18B20_Handle_t *hds18b20)
{
 80005dc:	b580      	push	{r7, lr}
 80005de:	b084      	sub	sp, #16
 80005e0:	af00      	add	r7, sp, #0
 80005e2:	6078      	str	r0, [r7, #4]
	uint8_t response = 0;
 80005e4:	2300      	movs	r3, #0
 80005e6:	73fb      	strb	r3, [r7, #15]

	Set_pin_as_out(hds18b20->pGPIOx, hds18b20->GPIO_pin);
 80005e8:	687b      	ldr	r3, [r7, #4]
 80005ea:	685a      	ldr	r2, [r3, #4]
 80005ec:	687b      	ldr	r3, [r7, #4]
 80005ee:	781b      	ldrb	r3, [r3, #0]
 80005f0:	4619      	mov	r1, r3
 80005f2:	4610      	mov	r0, r2
 80005f4:	f000 f9e8 	bl	80009c8 <Set_pin_as_out>

	Write_pin(hds18b20->pGPIOx, hds18b20->GPIO_pin, LOW);	//pull data line to LOW for 480-950 microseconds (RESET signal)
 80005f8:	687b      	ldr	r3, [r7, #4]
 80005fa:	6858      	ldr	r0, [r3, #4]
 80005fc:	687b      	ldr	r3, [r7, #4]
 80005fe:	781b      	ldrb	r3, [r3, #0]
 8000600:	2200      	movs	r2, #0
 8000602:	4619      	mov	r1, r3
 8000604:	f000 fa18 	bl	8000a38 <Write_pin>
	Delay_us(550);
 8000608:	f240 2026 	movw	r0, #550	; 0x226
 800060c:	f7ff ffce 	bl	80005ac <Delay_us>

	Set_pin_as_in(hds18b20->pGPIOx, hds18b20->GPIO_pin);
 8000610:	687b      	ldr	r3, [r7, #4]
 8000612:	685a      	ldr	r2, [r3, #4]
 8000614:	687b      	ldr	r3, [r7, #4]
 8000616:	781b      	ldrb	r3, [r3, #0]
 8000618:	4619      	mov	r1, r3
 800061a:	4610      	mov	r0, r2
 800061c:	f000 f9f5 	bl	8000a0a <Set_pin_as_in>
	Delay_us(80);
 8000620:	2050      	movs	r0, #80	; 0x50
 8000622:	f7ff ffc3 	bl	80005ac <Delay_us>

	if(!Read_pin(hds18b20->pGPIOx, hds18b20->GPIO_pin))	//scan for PRESENCE signal (LOW data line)
 8000626:	687b      	ldr	r3, [r7, #4]
 8000628:	685a      	ldr	r2, [r3, #4]
 800062a:	687b      	ldr	r3, [r7, #4]
 800062c:	781b      	ldrb	r3, [r3, #0]
 800062e:	4619      	mov	r1, r3
 8000630:	4610      	mov	r0, r2
 8000632:	f000 fa26 	bl	8000a82 <Read_pin>
 8000636:	4603      	mov	r3, r0
 8000638:	2b00      	cmp	r3, #0
 800063a:	d101      	bne.n	8000640 <Ds18b20_init_phase+0x64>
	{
		response = 1;
 800063c:	2301      	movs	r3, #1
 800063e:	73fb      	strb	r3, [r7, #15]
	}

	Delay_us(200);
 8000640:	20c8      	movs	r0, #200	; 0xc8
 8000642:	f7ff ffb3 	bl	80005ac <Delay_us>
	return response;
 8000646:	7bfb      	ldrb	r3, [r7, #15]
}
 8000648:	4618      	mov	r0, r3
 800064a:	3710      	adds	r7, #16
 800064c:	46bd      	mov	sp, r7
 800064e:	bd80      	pop	{r7, pc}

08000650 <Ds18b20_command>:
 * @return            -  none
 *
 * @Note              -  This is used after presence signal is received
 */
void Ds18b20_command(DS18B20_Handle_t *pDs18b20, uint8_t command)
{
 8000650:	b580      	push	{r7, lr}
 8000652:	b082      	sub	sp, #8
 8000654:	af00      	add	r7, sp, #0
 8000656:	6078      	str	r0, [r7, #4]
 8000658:	460b      	mov	r3, r1
 800065a:	70fb      	strb	r3, [r7, #3]
	Ds18b20_write_byte(pDs18b20, command);
 800065c:	78fb      	ldrb	r3, [r7, #3]
 800065e:	4619      	mov	r1, r3
 8000660:	6878      	ldr	r0, [r7, #4]
 8000662:	f000 f8f1 	bl	8000848 <Ds18b20_write_byte>
	Delay_us(50);
 8000666:	2032      	movs	r0, #50	; 0x32
 8000668:	f7ff ffa0 	bl	80005ac <Delay_us>
}
 800066c:	bf00      	nop
 800066e:	3708      	adds	r7, #8
 8000670:	46bd      	mov	sp, r7
 8000672:	bd80      	pop	{r7, pc}

08000674 <Ds18b20_rom_read>:
 * @return            - uint64_t unique device code
 *
 * @Note              -  This is used after presence signal is received
 */
uint64_t Ds18b20_rom_read(DS18B20_Handle_t *pDs18b20)
{
 8000674:	e92d 48f0 	stmdb	sp!, {r4, r5, r6, r7, fp, lr}
 8000678:	b086      	sub	sp, #24
 800067a:	af00      	add	r7, sp, #0
 800067c:	6078      	str	r0, [r7, #4]
	Ds18b20_command(pDs18b20, DS18B20_ROM_READ);
 800067e:	2133      	movs	r1, #51	; 0x33
 8000680:	6878      	ldr	r0, [r7, #4]
 8000682:	f7ff ffe5 	bl	8000650 <Ds18b20_command>
	uint64_t rom = 0;
 8000686:	f04f 0200 	mov.w	r2, #0
 800068a:	f04f 0300 	mov.w	r3, #0
 800068e:	e9c7 2304 	strd	r2, r3, [r7, #16]

	//the first 8 bits are 1-Wire family code
	rom |= (((uint64_t)Ds18b20_read_byte(pDs18b20) & 0xFF) << 7*8);
 8000692:	6878      	ldr	r0, [r7, #4]
 8000694:	f000 f92d 	bl	80008f2 <Ds18b20_read_byte>
 8000698:	4603      	mov	r3, r0
 800069a:	b2d8      	uxtb	r0, r3
 800069c:	f04f 0100 	mov.w	r1, #0
 80006a0:	f04f 0b00 	mov.w	fp, #0
 80006a4:	f04f 0c00 	mov.w	ip, #0
 80006a8:	ea4f 6c00 	mov.w	ip, r0, lsl #24
 80006ac:	f04f 0b00 	mov.w	fp, #0
 80006b0:	e9d7 0104 	ldrd	r0, r1, [r7, #16]
 80006b4:	ea4b 0200 	orr.w	r2, fp, r0
 80006b8:	ea4c 0301 	orr.w	r3, ip, r1
 80006bc:	e9c7 2304 	strd	r2, r3, [r7, #16]

	//the next 48 bits are unique serial number
	for(int i = 1; i < 7; i++)
 80006c0:	2301      	movs	r3, #1
 80006c2:	60fb      	str	r3, [r7, #12]
 80006c4:	e021      	b.n	800070a <Ds18b20_rom_read+0x96>
	{
		rom |= (((uint64_t)Ds18b20_read_byte(pDs18b20) & 0xFF) << i*8);
 80006c6:	6878      	ldr	r0, [r7, #4]
 80006c8:	f000 f913 	bl	80008f2 <Ds18b20_read_byte>
 80006cc:	4603      	mov	r3, r0
 80006ce:	b2da      	uxtb	r2, r3
 80006d0:	f04f 0300 	mov.w	r3, #0
 80006d4:	68f9      	ldr	r1, [r7, #12]
 80006d6:	00c9      	lsls	r1, r1, #3
 80006d8:	f1a1 0620 	sub.w	r6, r1, #32
 80006dc:	f1c1 0020 	rsb	r0, r1, #32
 80006e0:	fa03 f501 	lsl.w	r5, r3, r1
 80006e4:	fa02 f606 	lsl.w	r6, r2, r6
 80006e8:	4335      	orrs	r5, r6
 80006ea:	fa22 f000 	lsr.w	r0, r2, r0
 80006ee:	4305      	orrs	r5, r0
 80006f0:	fa02 f401 	lsl.w	r4, r2, r1
 80006f4:	e9d7 2304 	ldrd	r2, r3, [r7, #16]
 80006f8:	ea42 0004 	orr.w	r0, r2, r4
 80006fc:	ea43 0105 	orr.w	r1, r3, r5
 8000700:	e9c7 0104 	strd	r0, r1, [r7, #16]
	for(int i = 1; i < 7; i++)
 8000704:	68fb      	ldr	r3, [r7, #12]
 8000706:	3301      	adds	r3, #1
 8000708:	60fb      	str	r3, [r7, #12]
 800070a:	68fb      	ldr	r3, [r7, #12]
 800070c:	2b06      	cmp	r3, #6
 800070e:	ddda      	ble.n	80006c6 <Ds18b20_rom_read+0x52>
	}

	//last 8 bits are CRC of the firs 56 bits
	rom |= (((uint64_t)Ds18b20_read_byte(pDs18b20) & 0xFF) << 0);
 8000710:	6878      	ldr	r0, [r7, #4]
 8000712:	f000 f8ee 	bl	80008f2 <Ds18b20_read_byte>
 8000716:	4603      	mov	r3, r0
 8000718:	b2dd      	uxtb	r5, r3
 800071a:	f04f 0600 	mov.w	r6, #0
 800071e:	e9d7 1204 	ldrd	r1, r2, [r7, #16]
 8000722:	ea45 0301 	orr.w	r3, r5, r1
 8000726:	ea46 0402 	orr.w	r4, r6, r2
 800072a:	e9c7 3404 	strd	r3, r4, [r7, #16]

	return rom;
 800072e:	e9d7 3404 	ldrd	r3, r4, [r7, #16]
}
 8000732:	4618      	mov	r0, r3
 8000734:	4621      	mov	r1, r4
 8000736:	3718      	adds	r7, #24
 8000738:	46bd      	mov	sp, r7
 800073a:	e8bd 88f0 	ldmia.w	sp!, {r4, r5, r6, r7, fp, pc}

0800073e <Ds18b20_rom_match>:
 * @return            - none
 *
 * @Note              - If match is found device will accept next command, else it will wait for reset signal
 */
void Ds18b20_rom_match(DS18B20_Handle_t *pDs18b20, uint64_t rom_sequence)
{
 800073e:	b5f0      	push	{r4, r5, r6, r7, lr}
 8000740:	b087      	sub	sp, #28
 8000742:	af00      	add	r7, sp, #0
 8000744:	60f8      	str	r0, [r7, #12]
 8000746:	e9c7 2300 	strd	r2, r3, [r7]
	uint8_t next_byte;

	//Send command to match rom
	Ds18b20_command(pDs18b20, DS18B20_ROM_MATCH);
 800074a:	2155      	movs	r1, #85	; 0x55
 800074c:	68f8      	ldr	r0, [r7, #12]
 800074e:	f7ff ff7f 	bl	8000650 <Ds18b20_command>

	//Send unique ROM code to Data line
	for(int i = 0; i < 8; i++)
 8000752:	2300      	movs	r3, #0
 8000754:	617b      	str	r3, [r7, #20]
 8000756:	e01f      	b.n	8000798 <Ds18b20_rom_match+0x5a>
	{
		next_byte = 0;
 8000758:	2300      	movs	r3, #0
 800075a:	74fb      	strb	r3, [r7, #19]
		next_byte |= (rom_sequence >> i * 8) & 0x00000000000000FF;
 800075c:	697b      	ldr	r3, [r7, #20]
 800075e:	00d9      	lsls	r1, r3, #3
 8000760:	e9d7 2300 	ldrd	r2, r3, [r7]
 8000764:	f1c1 0620 	rsb	r6, r1, #32
 8000768:	f1a1 0020 	sub.w	r0, r1, #32
 800076c:	fa22 f401 	lsr.w	r4, r2, r1
 8000770:	fa03 f606 	lsl.w	r6, r3, r6
 8000774:	4334      	orrs	r4, r6
 8000776:	fa23 f000 	lsr.w	r0, r3, r0
 800077a:	4304      	orrs	r4, r0
 800077c:	fa23 f501 	lsr.w	r5, r3, r1
 8000780:	b2e2      	uxtb	r2, r4
 8000782:	7cfb      	ldrb	r3, [r7, #19]
 8000784:	4313      	orrs	r3, r2
 8000786:	74fb      	strb	r3, [r7, #19]
		Ds18b20_write_byte(pDs18b20, next_byte);
 8000788:	7cfb      	ldrb	r3, [r7, #19]
 800078a:	4619      	mov	r1, r3
 800078c:	68f8      	ldr	r0, [r7, #12]
 800078e:	f000 f85b 	bl	8000848 <Ds18b20_write_byte>
	for(int i = 0; i < 8; i++)
 8000792:	697b      	ldr	r3, [r7, #20]
 8000794:	3301      	adds	r3, #1
 8000796:	617b      	str	r3, [r7, #20]
 8000798:	697b      	ldr	r3, [r7, #20]
 800079a:	2b07      	cmp	r3, #7
 800079c:	dddc      	ble.n	8000758 <Ds18b20_rom_match+0x1a>
	}
}
 800079e:	bf00      	nop
 80007a0:	371c      	adds	r7, #28
 80007a2:	46bd      	mov	sp, r7
 80007a4:	bdf0      	pop	{r4, r5, r6, r7, pc}

080007a6 <Ds18b20_read_pw_supply>:
 * 						LOW if parasite power, HIGH if external power
 *
 * @Note              - none
 */
uint8_t Ds18b20_read_pw_supply(DS18B20_Handle_t *pDs18b20)
{
 80007a6:	b580      	push	{r7, lr}
 80007a8:	b082      	sub	sp, #8
 80007aa:	af00      	add	r7, sp, #0
 80007ac:	6078      	str	r0, [r7, #4]
	Ds18b20_command(pDs18b20, DS18B20_MEMORY_PW_READ);
 80007ae:	21b4      	movs	r1, #180	; 0xb4
 80007b0:	6878      	ldr	r0, [r7, #4]
 80007b2:	f7ff ff4d 	bl	8000650 <Ds18b20_command>
	return Ds18b20_read_bit(pDs18b20);
 80007b6:	6878      	ldr	r0, [r7, #4]
 80007b8:	f000 f805 	bl	80007c6 <Ds18b20_read_bit>
 80007bc:	4603      	mov	r3, r0
}
 80007be:	4618      	mov	r0, r3
 80007c0:	3708      	adds	r7, #8
 80007c2:	46bd      	mov	sp, r7
 80007c4:	bd80      	pop	{r7, pc}

080007c6 <Ds18b20_read_bit>:
 * @return            - uint8_t data received from device (HIGH or LOW)
 *
 * @Note              -
 */
uint8_t Ds18b20_read_bit(DS18B20_Handle_t *pDs18b20)
{
 80007c6:	b580      	push	{r7, lr}
 80007c8:	b084      	sub	sp, #16
 80007ca:	af00      	add	r7, sp, #0
 80007cc:	6078      	str	r0, [r7, #4]
	uint8_t read_data = 0;
 80007ce:	2300      	movs	r3, #0
 80007d0:	73fb      	strb	r3, [r7, #15]
	Set_pin_as_in(pDs18b20->pGPIOx, pDs18b20->GPIO_pin);
 80007d2:	687b      	ldr	r3, [r7, #4]
 80007d4:	685a      	ldr	r2, [r3, #4]
 80007d6:	687b      	ldr	r3, [r7, #4]
 80007d8:	781b      	ldrb	r3, [r3, #0]
 80007da:	4619      	mov	r1, r3
 80007dc:	4610      	mov	r0, r2
 80007de:	f000 f914 	bl	8000a0a <Set_pin_as_in>

	//First we pull line to LOW for 2us to signal device that we are ready for reception
	Set_pin_as_out(pDs18b20->pGPIOx, pDs18b20->GPIO_pin);
 80007e2:	687b      	ldr	r3, [r7, #4]
 80007e4:	685a      	ldr	r2, [r3, #4]
 80007e6:	687b      	ldr	r3, [r7, #4]
 80007e8:	781b      	ldrb	r3, [r3, #0]
 80007ea:	4619      	mov	r1, r3
 80007ec:	4610      	mov	r0, r2
 80007ee:	f000 f8eb 	bl	80009c8 <Set_pin_as_out>
	Write_pin(pDs18b20->pGPIOx, pDs18b20->GPIO_pin, LOW);
 80007f2:	687b      	ldr	r3, [r7, #4]
 80007f4:	6858      	ldr	r0, [r3, #4]
 80007f6:	687b      	ldr	r3, [r7, #4]
 80007f8:	781b      	ldrb	r3, [r3, #0]
 80007fa:	2200      	movs	r2, #0
 80007fc:	4619      	mov	r1, r3
 80007fe:	f000 f91b 	bl	8000a38 <Write_pin>
	Delay_us(2);
 8000802:	2002      	movs	r0, #2
 8000804:	f7ff fed2 	bl	80005ac <Delay_us>

	//Then release and wait 5 us to give device time to react
	Set_pin_as_in(pDs18b20->pGPIOx, pDs18b20->GPIO_pin);
 8000808:	687b      	ldr	r3, [r7, #4]
 800080a:	685a      	ldr	r2, [r3, #4]
 800080c:	687b      	ldr	r3, [r7, #4]
 800080e:	781b      	ldrb	r3, [r3, #0]
 8000810:	4619      	mov	r1, r3
 8000812:	4610      	mov	r0, r2
 8000814:	f000 f8f9 	bl	8000a0a <Set_pin_as_in>
	Delay_us(5);
 8000818:	2005      	movs	r0, #5
 800081a:	f7ff fec7 	bl	80005ac <Delay_us>

	//Read bit and wait 55us before signaling again
	if(Read_pin(pDs18b20->pGPIOx, pDs18b20->GPIO_pin))
 800081e:	687b      	ldr	r3, [r7, #4]
 8000820:	685a      	ldr	r2, [r3, #4]
 8000822:	687b      	ldr	r3, [r7, #4]
 8000824:	781b      	ldrb	r3, [r3, #0]
 8000826:	4619      	mov	r1, r3
 8000828:	4610      	mov	r0, r2
 800082a:	f000 f92a 	bl	8000a82 <Read_pin>
 800082e:	4603      	mov	r3, r0
 8000830:	2b00      	cmp	r3, #0
 8000832:	d001      	beq.n	8000838 <Ds18b20_read_bit+0x72>
	{
		read_data = 1;
 8000834:	2301      	movs	r3, #1
 8000836:	73fb      	strb	r3, [r7, #15]
	}

	Delay_us(55);
 8000838:	2037      	movs	r0, #55	; 0x37
 800083a:	f7ff feb7 	bl	80005ac <Delay_us>

	return read_data;
 800083e:	7bfb      	ldrb	r3, [r7, #15]
}
 8000840:	4618      	mov	r0, r3
 8000842:	3710      	adds	r7, #16
 8000844:	46bd      	mov	sp, r7
 8000846:	bd80      	pop	{r7, pc}

08000848 <Ds18b20_write_byte>:
 * @return            - none
 *
 * @Note              - none
 */
void Ds18b20_write_byte(DS18B20_Handle_t *pDs18b20, uint8_t write_data)
{
 8000848:	b580      	push	{r7, lr}
 800084a:	b084      	sub	sp, #16
 800084c:	af00      	add	r7, sp, #0
 800084e:	6078      	str	r0, [r7, #4]
 8000850:	460b      	mov	r3, r1
 8000852:	70fb      	strb	r3, [r7, #3]
	for(int i = 0; i < 8; i++)
 8000854:	2300      	movs	r3, #0
 8000856:	60fb      	str	r3, [r7, #12]
 8000858:	e044      	b.n	80008e4 <Ds18b20_write_byte+0x9c>
	{
		if((write_data & (1 << i)) == 0)
 800085a:	78fa      	ldrb	r2, [r7, #3]
 800085c:	68fb      	ldr	r3, [r7, #12]
 800085e:	fa42 f303 	asr.w	r3, r2, r3
 8000862:	f003 0301 	and.w	r3, r3, #1
 8000866:	2b00      	cmp	r3, #0
 8000868:	d11b      	bne.n	80008a2 <Ds18b20_write_byte+0x5a>
		{
			//bit is LOW so we keep line LOW for 60 us
			Set_pin_as_out(pDs18b20->pGPIOx, pDs18b20->GPIO_pin);
 800086a:	687b      	ldr	r3, [r7, #4]
 800086c:	685a      	ldr	r2, [r3, #4]
 800086e:	687b      	ldr	r3, [r7, #4]
 8000870:	781b      	ldrb	r3, [r3, #0]
 8000872:	4619      	mov	r1, r3
 8000874:	4610      	mov	r0, r2
 8000876:	f000 f8a7 	bl	80009c8 <Set_pin_as_out>
			Write_pin(pDs18b20->pGPIOx, pDs18b20->GPIO_pin, LOW);
 800087a:	687b      	ldr	r3, [r7, #4]
 800087c:	6858      	ldr	r0, [r3, #4]
 800087e:	687b      	ldr	r3, [r7, #4]
 8000880:	781b      	ldrb	r3, [r3, #0]
 8000882:	2200      	movs	r2, #0
 8000884:	4619      	mov	r1, r3
 8000886:	f000 f8d7 	bl	8000a38 <Write_pin>
			Delay_us(60);
 800088a:	203c      	movs	r0, #60	; 0x3c
 800088c:	f7ff fe8e 	bl	80005ac <Delay_us>
			Set_pin_as_in(pDs18b20->pGPIOx, pDs18b20->GPIO_pin);
 8000890:	687b      	ldr	r3, [r7, #4]
 8000892:	685a      	ldr	r2, [r3, #4]
 8000894:	687b      	ldr	r3, [r7, #4]
 8000896:	781b      	ldrb	r3, [r3, #0]
 8000898:	4619      	mov	r1, r3
 800089a:	4610      	mov	r0, r2
 800089c:	f000 f8b5 	bl	8000a0a <Set_pin_as_in>
 80008a0:	e01d      	b.n	80008de <Ds18b20_write_byte+0x96>
		}
		else
		{
			//Bit is HIGH so we pull low for 1us, then release line so its pulled HIGH for 60us
			Set_pin_as_out(pDs18b20->pGPIOx, pDs18b20->GPIO_pin);
 80008a2:	687b      	ldr	r3, [r7, #4]
 80008a4:	685a      	ldr	r2, [r3, #4]
 80008a6:	687b      	ldr	r3, [r7, #4]
 80008a8:	781b      	ldrb	r3, [r3, #0]
 80008aa:	4619      	mov	r1, r3
 80008ac:	4610      	mov	r0, r2
 80008ae:	f000 f88b 	bl	80009c8 <Set_pin_as_out>
			Write_pin(pDs18b20->pGPIOx, pDs18b20->GPIO_pin, LOW);
 80008b2:	687b      	ldr	r3, [r7, #4]
 80008b4:	6858      	ldr	r0, [r3, #4]
 80008b6:	687b      	ldr	r3, [r7, #4]
 80008b8:	781b      	ldrb	r3, [r3, #0]
 80008ba:	2200      	movs	r2, #0
 80008bc:	4619      	mov	r1, r3
 80008be:	f000 f8bb 	bl	8000a38 <Write_pin>
			Delay_us(1);
 80008c2:	2001      	movs	r0, #1
 80008c4:	f7ff fe72 	bl	80005ac <Delay_us>
			Set_pin_as_in(pDs18b20->pGPIOx, pDs18b20->GPIO_pin);
 80008c8:	687b      	ldr	r3, [r7, #4]
 80008ca:	685a      	ldr	r2, [r3, #4]
 80008cc:	687b      	ldr	r3, [r7, #4]
 80008ce:	781b      	ldrb	r3, [r3, #0]
 80008d0:	4619      	mov	r1, r3
 80008d2:	4610      	mov	r0, r2
 80008d4:	f000 f899 	bl	8000a0a <Set_pin_as_in>
			Delay_us(60);
 80008d8:	203c      	movs	r0, #60	; 0x3c
 80008da:	f7ff fe67 	bl	80005ac <Delay_us>
	for(int i = 0; i < 8; i++)
 80008de:	68fb      	ldr	r3, [r7, #12]
 80008e0:	3301      	adds	r3, #1
 80008e2:	60fb      	str	r3, [r7, #12]
 80008e4:	68fb      	ldr	r3, [r7, #12]
 80008e6:	2b07      	cmp	r3, #7
 80008e8:	ddb7      	ble.n	800085a <Ds18b20_write_byte+0x12>
		}
	}
}
 80008ea:	bf00      	nop
 80008ec:	3710      	adds	r7, #16
 80008ee:	46bd      	mov	sp, r7
 80008f0:	bd80      	pop	{r7, pc}

080008f2 <Ds18b20_read_byte>:
 * @return            - uint8_t data received from device
 *
 * @Note              -
 */
uint8_t Ds18b20_read_byte(DS18B20_Handle_t *pDs18b20)
{
 80008f2:	b580      	push	{r7, lr}
 80008f4:	b084      	sub	sp, #16
 80008f6:	af00      	add	r7, sp, #0
 80008f8:	6078      	str	r0, [r7, #4]
	uint8_t read_data = 0;
 80008fa:	2300      	movs	r3, #0
 80008fc:	73fb      	strb	r3, [r7, #15]
	Set_pin_as_in(pDs18b20->pGPIOx, pDs18b20->GPIO_pin);
 80008fe:	687b      	ldr	r3, [r7, #4]
 8000900:	685a      	ldr	r2, [r3, #4]
 8000902:	687b      	ldr	r3, [r7, #4]
 8000904:	781b      	ldrb	r3, [r3, #0]
 8000906:	4619      	mov	r1, r3
 8000908:	4610      	mov	r0, r2
 800090a:	f000 f87e 	bl	8000a0a <Set_pin_as_in>

	for(int i = 0; i < 8; i++)
 800090e:	2300      	movs	r3, #0
 8000910:	60bb      	str	r3, [r7, #8]
 8000912:	e038      	b.n	8000986 <Ds18b20_read_byte+0x94>
	{
		//First we pull line to LOW for 2us to signal device that we are ready for reception
		Set_pin_as_out(pDs18b20->pGPIOx, pDs18b20->GPIO_pin);
 8000914:	687b      	ldr	r3, [r7, #4]
 8000916:	685a      	ldr	r2, [r3, #4]
 8000918:	687b      	ldr	r3, [r7, #4]
 800091a:	781b      	ldrb	r3, [r3, #0]
 800091c:	4619      	mov	r1, r3
 800091e:	4610      	mov	r0, r2
 8000920:	f000 f852 	bl	80009c8 <Set_pin_as_out>
		Write_pin(pDs18b20->pGPIOx, pDs18b20->GPIO_pin, LOW);
 8000924:	687b      	ldr	r3, [r7, #4]
 8000926:	6858      	ldr	r0, [r3, #4]
 8000928:	687b      	ldr	r3, [r7, #4]
 800092a:	781b      	ldrb	r3, [r3, #0]
 800092c:	2200      	movs	r2, #0
 800092e:	4619      	mov	r1, r3
 8000930:	f000 f882 	bl	8000a38 <Write_pin>
		Delay_us(2);
 8000934:	2002      	movs	r0, #2
 8000936:	f7ff fe39 	bl	80005ac <Delay_us>

		//Then release and wait 5 us to give device time to react
		Set_pin_as_in(pDs18b20->pGPIOx, pDs18b20->GPIO_pin);
 800093a:	687b      	ldr	r3, [r7, #4]
 800093c:	685a      	ldr	r2, [r3, #4]
 800093e:	687b      	ldr	r3, [r7, #4]
 8000940:	781b      	ldrb	r3, [r3, #0]
 8000942:	4619      	mov	r1, r3
 8000944:	4610      	mov	r0, r2
 8000946:	f000 f860 	bl	8000a0a <Set_pin_as_in>
		Delay_us(5);
 800094a:	2005      	movs	r0, #5
 800094c:	f7ff fe2e 	bl	80005ac <Delay_us>

		//Read bit and wait 55us before signaling again
		if(Read_pin(pDs18b20->pGPIOx, pDs18b20->GPIO_pin))
 8000950:	687b      	ldr	r3, [r7, #4]
 8000952:	685a      	ldr	r2, [r3, #4]
 8000954:	687b      	ldr	r3, [r7, #4]
 8000956:	781b      	ldrb	r3, [r3, #0]
 8000958:	4619      	mov	r1, r3
 800095a:	4610      	mov	r0, r2
 800095c:	f000 f891 	bl	8000a82 <Read_pin>
 8000960:	4603      	mov	r3, r0
 8000962:	2b00      	cmp	r3, #0
 8000964:	d009      	beq.n	800097a <Ds18b20_read_byte+0x88>
		{
			read_data |= (1 << i);
 8000966:	2201      	movs	r2, #1
 8000968:	68bb      	ldr	r3, [r7, #8]
 800096a:	fa02 f303 	lsl.w	r3, r2, r3
 800096e:	b25a      	sxtb	r2, r3
 8000970:	f997 300f 	ldrsb.w	r3, [r7, #15]
 8000974:	4313      	orrs	r3, r2
 8000976:	b25b      	sxtb	r3, r3
 8000978:	73fb      	strb	r3, [r7, #15]
		}

		Delay_us(55);
 800097a:	2037      	movs	r0, #55	; 0x37
 800097c:	f7ff fe16 	bl	80005ac <Delay_us>
	for(int i = 0; i < 8; i++)
 8000980:	68bb      	ldr	r3, [r7, #8]
 8000982:	3301      	adds	r3, #1
 8000984:	60bb      	str	r3, [r7, #8]
 8000986:	68bb      	ldr	r3, [r7, #8]
 8000988:	2b07      	cmp	r3, #7
 800098a:	ddc3      	ble.n	8000914 <Ds18b20_read_byte+0x22>
	}

	return read_data;
 800098c:	7bfb      	ldrb	r3, [r7, #15]
}
 800098e:	4618      	mov	r0, r3
 8000990:	3710      	adds	r7, #16
 8000992:	46bd      	mov	sp, r7
 8000994:	bd80      	pop	{r7, pc}

08000996 <sd18b20_gpio_init>:
 *
 * @Note              -  none

 */
void sd18b20_gpio_init(DS18B20_Handle_t *pDs18b20)
{
 8000996:	b580      	push	{r7, lr}
 8000998:	b088      	sub	sp, #32
 800099a:	af00      	add	r7, sp, #0
 800099c:	6078      	str	r0, [r7, #4]
	GPIO_InitTypeDef ds_gpio;

	ds_gpio.Pin = pDs18b20->GPIO_pin;
 800099e:	687b      	ldr	r3, [r7, #4]
 80009a0:	781b      	ldrb	r3, [r3, #0]
 80009a2:	60fb      	str	r3, [r7, #12]
	ds_gpio.Mode = GPIO_MODE_OUTPUT_OD;
 80009a4:	2311      	movs	r3, #17
 80009a6:	613b      	str	r3, [r7, #16]
	ds_gpio.Pull = GPIO_NOPULL;
 80009a8:	2300      	movs	r3, #0
 80009aa:	617b      	str	r3, [r7, #20]
	ds_gpio.Speed = GPIO_SPEED_FREQ_LOW;
 80009ac:	2300      	movs	r3, #0
 80009ae:	61bb      	str	r3, [r7, #24]

	HAL_GPIO_Init(pDs18b20->pGPIOx, &ds_gpio);
 80009b0:	687b      	ldr	r3, [r7, #4]
 80009b2:	685b      	ldr	r3, [r3, #4]
 80009b4:	f107 020c 	add.w	r2, r7, #12
 80009b8:	4611      	mov	r1, r2
 80009ba:	4618      	mov	r0, r3
 80009bc:	f000 fbb8 	bl	8001130 <HAL_GPIO_Init>
}
 80009c0:	bf00      	nop
 80009c2:	3720      	adds	r7, #32
 80009c4:	46bd      	mov	sp, r7
 80009c6:	bd80      	pop	{r7, pc}

080009c8 <Set_pin_as_out>:
 *
 * @Note              -  none

 */
void Set_pin_as_out(GPIO_TypeDef *pGpio_port, uint8_t gpio_pin)
{
 80009c8:	b480      	push	{r7}
 80009ca:	b083      	sub	sp, #12
 80009cc:	af00      	add	r7, sp, #0
 80009ce:	6078      	str	r0, [r7, #4]
 80009d0:	460b      	mov	r3, r1
 80009d2:	70fb      	strb	r3, [r7, #3]
	//reset then set mode as output
	pGpio_port->MODER &= ~(0x3 << (2 * gpio_pin));
 80009d4:	687b      	ldr	r3, [r7, #4]
 80009d6:	681b      	ldr	r3, [r3, #0]
 80009d8:	78fa      	ldrb	r2, [r7, #3]
 80009da:	0052      	lsls	r2, r2, #1
 80009dc:	2103      	movs	r1, #3
 80009de:	fa01 f202 	lsl.w	r2, r1, r2
 80009e2:	43d2      	mvns	r2, r2
 80009e4:	401a      	ands	r2, r3
 80009e6:	687b      	ldr	r3, [r7, #4]
 80009e8:	601a      	str	r2, [r3, #0]
	pGpio_port->MODER |= (1 << (2 * gpio_pin));
 80009ea:	687b      	ldr	r3, [r7, #4]
 80009ec:	681b      	ldr	r3, [r3, #0]
 80009ee:	78fa      	ldrb	r2, [r7, #3]
 80009f0:	0052      	lsls	r2, r2, #1
 80009f2:	2101      	movs	r1, #1
 80009f4:	fa01 f202 	lsl.w	r2, r1, r2
 80009f8:	431a      	orrs	r2, r3
 80009fa:	687b      	ldr	r3, [r7, #4]
 80009fc:	601a      	str	r2, [r3, #0]
}
 80009fe:	bf00      	nop
 8000a00:	370c      	adds	r7, #12
 8000a02:	46bd      	mov	sp, r7
 8000a04:	f85d 7b04 	ldr.w	r7, [sp], #4
 8000a08:	4770      	bx	lr

08000a0a <Set_pin_as_in>:
 *
 * @Note              -  none

 */
void Set_pin_as_in(GPIO_TypeDef *pGpio_port, uint8_t gpio_pin)
{
 8000a0a:	b480      	push	{r7}
 8000a0c:	b083      	sub	sp, #12
 8000a0e:	af00      	add	r7, sp, #0
 8000a10:	6078      	str	r0, [r7, #4]
 8000a12:	460b      	mov	r3, r1
 8000a14:	70fb      	strb	r3, [r7, #3]
	//set pin as in
	pGpio_port->MODER &= ~(0x3 << (2 * gpio_pin));
 8000a16:	687b      	ldr	r3, [r7, #4]
 8000a18:	681b      	ldr	r3, [r3, #0]
 8000a1a:	78fa      	ldrb	r2, [r7, #3]
 8000a1c:	0052      	lsls	r2, r2, #1
 8000a1e:	2103      	movs	r1, #3
 8000a20:	fa01 f202 	lsl.w	r2, r1, r2
 8000a24:	43d2      	mvns	r2, r2
 8000a26:	401a      	ands	r2, r3
 8000a28:	687b      	ldr	r3, [r7, #4]
 8000a2a:	601a      	str	r2, [r3, #0]
}
 8000a2c:	bf00      	nop
 8000a2e:	370c      	adds	r7, #12
 8000a30:	46bd      	mov	sp, r7
 8000a32:	f85d 7b04 	ldr.w	r7, [sp], #4
 8000a36:	4770      	bx	lr

08000a38 <Write_pin>:
 *
 * @Note              -  none

 */
void Write_pin(GPIO_TypeDef *pGpio_port, uint8_t gpio_pin, uint8_t value)
{
 8000a38:	b480      	push	{r7}
 8000a3a:	b083      	sub	sp, #12
 8000a3c:	af00      	add	r7, sp, #0
 8000a3e:	6078      	str	r0, [r7, #4]
 8000a40:	460b      	mov	r3, r1
 8000a42:	70fb      	strb	r3, [r7, #3]
 8000a44:	4613      	mov	r3, r2
 8000a46:	70bb      	strb	r3, [r7, #2]
	if(value == 1)
 8000a48:	78bb      	ldrb	r3, [r7, #2]
 8000a4a:	2b01      	cmp	r3, #1
 8000a4c:	d109      	bne.n	8000a62 <Write_pin+0x2a>
	{
		pGpio_port->ODR |= (1 << gpio_pin);
 8000a4e:	687b      	ldr	r3, [r7, #4]
 8000a50:	695b      	ldr	r3, [r3, #20]
 8000a52:	78fa      	ldrb	r2, [r7, #3]
 8000a54:	2101      	movs	r1, #1
 8000a56:	fa01 f202 	lsl.w	r2, r1, r2
 8000a5a:	431a      	orrs	r2, r3
 8000a5c:	687b      	ldr	r3, [r7, #4]
 8000a5e:	615a      	str	r2, [r3, #20]
	}
	else
	{
		pGpio_port->ODR &= ~(1 << gpio_pin);
	}
}
 8000a60:	e009      	b.n	8000a76 <Write_pin+0x3e>
		pGpio_port->ODR &= ~(1 << gpio_pin);
 8000a62:	687b      	ldr	r3, [r7, #4]
 8000a64:	695b      	ldr	r3, [r3, #20]
 8000a66:	78fa      	ldrb	r2, [r7, #3]
 8000a68:	2101      	movs	r1, #1
 8000a6a:	fa01 f202 	lsl.w	r2, r1, r2
 8000a6e:	43d2      	mvns	r2, r2
 8000a70:	401a      	ands	r2, r3
 8000a72:	687b      	ldr	r3, [r7, #4]
 8000a74:	615a      	str	r2, [r3, #20]
}
 8000a76:	bf00      	nop
 8000a78:	370c      	adds	r7, #12
 8000a7a:	46bd      	mov	sp, r7
 8000a7c:	f85d 7b04 	ldr.w	r7, [sp], #4
 8000a80:	4770      	bx	lr

08000a82 <Read_pin>:
 *
 * @Note              -  none

 */
uint8_t Read_pin(GPIO_TypeDef *pGpio_port, uint8_t gpio_pin)
{
 8000a82:	b480      	push	{r7}
 8000a84:	b085      	sub	sp, #20
 8000a86:	af00      	add	r7, sp, #0
 8000a88:	6078      	str	r0, [r7, #4]
 8000a8a:	460b      	mov	r3, r1
 8000a8c:	70fb      	strb	r3, [r7, #3]
	uint8_t value = (uint8_t)((pGpio_port->IDR >> gpio_pin) & 0x00000001);
 8000a8e:	687b      	ldr	r3, [r7, #4]
 8000a90:	691a      	ldr	r2, [r3, #16]
 8000a92:	78fb      	ldrb	r3, [r7, #3]
 8000a94:	fa22 f303 	lsr.w	r3, r2, r3
 8000a98:	b2db      	uxtb	r3, r3
 8000a9a:	f003 0301 	and.w	r3, r3, #1
 8000a9e:	73fb      	strb	r3, [r7, #15]
	return value;
 8000aa0:	7bfb      	ldrb	r3, [r7, #15]
}
 8000aa2:	4618      	mov	r0, r3
 8000aa4:	3714      	adds	r7, #20
 8000aa6:	46bd      	mov	sp, r7
 8000aa8:	f85d 7b04 	ldr.w	r7, [sp], #4
 8000aac:	4770      	bx	lr
	...

08000ab0 <main>:
/**
  * @brief  The application entry point.
  * @retval int
  */
int main(void)
{
 8000ab0:	b590      	push	{r4, r7, lr}
 8000ab2:	b085      	sub	sp, #20
 8000ab4:	af00      	add	r7, sp, #0
  /* USER CODE BEGIN 1 */
	uint64_t rom;
	uint64_t matched_rom= 0x283c01b55633b9c4;
 8000ab6:	a41a      	add	r4, pc, #104	; (adr r4, 8000b20 <main+0x70>)
 8000ab8:	e9d4 3400 	ldrd	r3, r4, [r4]
 8000abc:	e9c7 3402 	strd	r3, r4, [r7, #8]
  /* USER CODE END 1 */

  /* MCU Configuration--------------------------------------------------------*/

  /* Reset of all peripherals, Initializes the Flash interface and the Systick. */
  HAL_Init();
 8000ac0:	f000 f9de 	bl	8000e80 <HAL_Init>
  /* USER CODE BEGIN Init */

  /* USER CODE END Init */

  /* Configure the system clock */
  SystemClock_Config();
 8000ac4:	f000 f830 	bl	8000b28 <SystemClock_Config>
  /* USER CODE BEGIN SysInit */

  /* USER CODE END SysInit */

  /* Initialize all configured peripherals */
  MX_GPIO_Init();
 8000ac8:	f000 f89c 	bl	8000c04 <MX_GPIO_Init>
  if(!MX_TIM1_Init(&htim1))
 8000acc:	4812      	ldr	r0, [pc, #72]	; (8000b18 <main+0x68>)
 8000ace:	f7ff fd1b 	bl	8000508 <MX_TIM1_Init>
 8000ad2:	4603      	mov	r3, r0
 8000ad4:	2b00      	cmp	r3, #0
 8000ad6:	d101      	bne.n	8000adc <main+0x2c>
  {
	  Error_Handler();
 8000ad8:	f000 f916 	bl	8000d08 <Error_Handler>
  }


  /* USER CODE BEGIN 2 */
  HAL_TIM_Base_Start(&htim1);
 8000adc:	480e      	ldr	r0, [pc, #56]	; (8000b18 <main+0x68>)
 8000ade:	f001 f9de 	bl	8001e9e <HAL_TIM_Base_Start>

  Ds18b20_handle_init(&hds18b20);
 8000ae2:	480e      	ldr	r0, [pc, #56]	; (8000b1c <main+0x6c>)
 8000ae4:	f000 f8fe 	bl	8000ce4 <Ds18b20_handle_init>
  sd18b20_gpio_init(&hds18b20);
 8000ae8:	480c      	ldr	r0, [pc, #48]	; (8000b1c <main+0x6c>)
 8000aea:	f7ff ff54 	bl	8000996 <sd18b20_gpio_init>

  /* Infinite loop */
  /* USER CODE BEGIN WHILE */

  //read unique ROM code
  Ds18b20_init_phase(&hds18b20);
 8000aee:	480b      	ldr	r0, [pc, #44]	; (8000b1c <main+0x6c>)
 8000af0:	f7ff fd74 	bl	80005dc <Ds18b20_init_phase>
  rom = Ds18b20_rom_read(&hds18b20);
 8000af4:	4809      	ldr	r0, [pc, #36]	; (8000b1c <main+0x6c>)
 8000af6:	f7ff fdbd 	bl	8000674 <Ds18b20_rom_read>
 8000afa:	e9c7 0100 	strd	r0, r1, [r7]

  //match rom code
  Ds18b20_init_phase(&hds18b20);
 8000afe:	4807      	ldr	r0, [pc, #28]	; (8000b1c <main+0x6c>)
 8000b00:	f7ff fd6c 	bl	80005dc <Ds18b20_init_phase>
  Ds18b20_rom_match(&hds18b20, matched_rom);
 8000b04:	e9d7 2302 	ldrd	r2, r3, [r7, #8]
 8000b08:	4804      	ldr	r0, [pc, #16]	; (8000b1c <main+0x6c>)
 8000b0a:	f7ff fe18 	bl	800073e <Ds18b20_rom_match>
  Ds18b20_read_pw_supply(&hds18b20);
 8000b0e:	4803      	ldr	r0, [pc, #12]	; (8000b1c <main+0x6c>)
 8000b10:	f7ff fe49 	bl	80007a6 <Ds18b20_read_pw_supply>

  while (1)
 8000b14:	e7fe      	b.n	8000b14 <main+0x64>
 8000b16:	bf00      	nop
 8000b18:	20000030 	.word	0x20000030
 8000b1c:	20000028 	.word	0x20000028
 8000b20:	5633b9c4 	.word	0x5633b9c4
 8000b24:	283c01b5 	.word	0x283c01b5

08000b28 <SystemClock_Config>:
/**
  * @brief System Clock Configuration
  * @retval None
  */
void SystemClock_Config(void)
{
 8000b28:	b580      	push	{r7, lr}
 8000b2a:	b094      	sub	sp, #80	; 0x50
 8000b2c:	af00      	add	r7, sp, #0
  RCC_OscInitTypeDef RCC_OscInitStruct = {0};
 8000b2e:	f107 031c 	add.w	r3, r7, #28
 8000b32:	2234      	movs	r2, #52	; 0x34
 8000b34:	2100      	movs	r1, #0
 8000b36:	4618      	mov	r0, r3
 8000b38:	f001 fc66 	bl	8002408 <memset>
  RCC_ClkInitTypeDef RCC_ClkInitStruct = {0};
 8000b3c:	f107 0308 	add.w	r3, r7, #8
 8000b40:	2200      	movs	r2, #0
 8000b42:	601a      	str	r2, [r3, #0]
 8000b44:	605a      	str	r2, [r3, #4]
 8000b46:	609a      	str	r2, [r3, #8]
 8000b48:	60da      	str	r2, [r3, #12]
 8000b4a:	611a      	str	r2, [r3, #16]

  /** Configure the main internal regulator output voltage 
  */
  __HAL_RCC_PWR_CLK_ENABLE();
 8000b4c:	2300      	movs	r3, #0
 8000b4e:	607b      	str	r3, [r7, #4]
 8000b50:	4b2a      	ldr	r3, [pc, #168]	; (8000bfc <SystemClock_Config+0xd4>)
 8000b52:	6c1b      	ldr	r3, [r3, #64]	; 0x40
 8000b54:	4a29      	ldr	r2, [pc, #164]	; (8000bfc <SystemClock_Config+0xd4>)
 8000b56:	f043 5380 	orr.w	r3, r3, #268435456	; 0x10000000
 8000b5a:	6413      	str	r3, [r2, #64]	; 0x40
 8000b5c:	4b27      	ldr	r3, [pc, #156]	; (8000bfc <SystemClock_Config+0xd4>)
 8000b5e:	6c1b      	ldr	r3, [r3, #64]	; 0x40
 8000b60:	f003 5380 	and.w	r3, r3, #268435456	; 0x10000000
 8000b64:	607b      	str	r3, [r7, #4]
 8000b66:	687b      	ldr	r3, [r7, #4]
  __HAL_PWR_VOLTAGESCALING_CONFIG(PWR_REGULATOR_VOLTAGE_SCALE3);
 8000b68:	2300      	movs	r3, #0
 8000b6a:	603b      	str	r3, [r7, #0]
 8000b6c:	4b24      	ldr	r3, [pc, #144]	; (8000c00 <SystemClock_Config+0xd8>)
 8000b6e:	681b      	ldr	r3, [r3, #0]
 8000b70:	f423 4340 	bic.w	r3, r3, #49152	; 0xc000
 8000b74:	4a22      	ldr	r2, [pc, #136]	; (8000c00 <SystemClock_Config+0xd8>)
 8000b76:	f443 4380 	orr.w	r3, r3, #16384	; 0x4000
 8000b7a:	6013      	str	r3, [r2, #0]
 8000b7c:	4b20      	ldr	r3, [pc, #128]	; (8000c00 <SystemClock_Config+0xd8>)
 8000b7e:	681b      	ldr	r3, [r3, #0]
 8000b80:	f403 4340 	and.w	r3, r3, #49152	; 0xc000
 8000b84:	603b      	str	r3, [r7, #0]
 8000b86:	683b      	ldr	r3, [r7, #0]
  /** Initializes the CPU, AHB and APB busses clocks 
  */
  RCC_OscInitStruct.OscillatorType = RCC_OSCILLATORTYPE_HSI;
 8000b88:	2302      	movs	r3, #2
 8000b8a:	61fb      	str	r3, [r7, #28]
  RCC_OscInitStruct.HSIState = RCC_HSI_ON;
 8000b8c:	2301      	movs	r3, #1
 8000b8e:	62bb      	str	r3, [r7, #40]	; 0x28
  RCC_OscInitStruct.HSICalibrationValue = RCC_HSICALIBRATION_DEFAULT;
 8000b90:	2310      	movs	r3, #16
 8000b92:	62fb      	str	r3, [r7, #44]	; 0x2c
  RCC_OscInitStruct.PLL.PLLState = RCC_PLL_ON;
 8000b94:	2302      	movs	r3, #2
 8000b96:	637b      	str	r3, [r7, #52]	; 0x34
  RCC_OscInitStruct.PLL.PLLSource = RCC_PLLSOURCE_HSI;
 8000b98:	2300      	movs	r3, #0
 8000b9a:	63bb      	str	r3, [r7, #56]	; 0x38
  RCC_OscInitStruct.PLL.PLLM = 16;
 8000b9c:	2310      	movs	r3, #16
 8000b9e:	63fb      	str	r3, [r7, #60]	; 0x3c
  RCC_OscInitStruct.PLL.PLLN = 336;
 8000ba0:	f44f 73a8 	mov.w	r3, #336	; 0x150
 8000ba4:	643b      	str	r3, [r7, #64]	; 0x40
  RCC_OscInitStruct.PLL.PLLP = RCC_PLLP_DIV4;
 8000ba6:	2304      	movs	r3, #4
 8000ba8:	647b      	str	r3, [r7, #68]	; 0x44
  RCC_OscInitStruct.PLL.PLLQ = 2;
 8000baa:	2302      	movs	r3, #2
 8000bac:	64bb      	str	r3, [r7, #72]	; 0x48
  RCC_OscInitStruct.PLL.PLLR = 2;
 8000bae:	2302      	movs	r3, #2
 8000bb0:	64fb      	str	r3, [r7, #76]	; 0x4c
  if (HAL_RCC_OscConfig(&RCC_OscInitStruct) != HAL_OK)
 8000bb2:	f107 031c 	add.w	r3, r7, #28
 8000bb6:	4618      	mov	r0, r3
 8000bb8:	f000 feec 	bl	8001994 <HAL_RCC_OscConfig>
 8000bbc:	4603      	mov	r3, r0
 8000bbe:	2b00      	cmp	r3, #0
 8000bc0:	d001      	beq.n	8000bc6 <SystemClock_Config+0x9e>
  {
    Error_Handler();
 8000bc2:	f000 f8a1 	bl	8000d08 <Error_Handler>
  }
  /** Initializes the CPU, AHB and APB busses clocks 
  */
  RCC_ClkInitStruct.ClockType = RCC_CLOCKTYPE_HCLK|RCC_CLOCKTYPE_SYSCLK
 8000bc6:	230f      	movs	r3, #15
 8000bc8:	60bb      	str	r3, [r7, #8]
                              |RCC_CLOCKTYPE_PCLK1|RCC_CLOCKTYPE_PCLK2;
  RCC_ClkInitStruct.SYSCLKSource = RCC_SYSCLKSOURCE_PLLCLK;
 8000bca:	2302      	movs	r3, #2
 8000bcc:	60fb      	str	r3, [r7, #12]
  RCC_ClkInitStruct.AHBCLKDivider = RCC_SYSCLK_DIV1;
 8000bce:	2300      	movs	r3, #0
 8000bd0:	613b      	str	r3, [r7, #16]
  RCC_ClkInitStruct.APB1CLKDivider = RCC_HCLK_DIV2;
 8000bd2:	f44f 5380 	mov.w	r3, #4096	; 0x1000
 8000bd6:	617b      	str	r3, [r7, #20]
  RCC_ClkInitStruct.APB2CLKDivider = RCC_HCLK_DIV1;
 8000bd8:	2300      	movs	r3, #0
 8000bda:	61bb      	str	r3, [r7, #24]

  if (HAL_RCC_ClockConfig(&RCC_ClkInitStruct, FLASH_LATENCY_2) != HAL_OK)
 8000bdc:	f107 0308 	add.w	r3, r7, #8
 8000be0:	2102      	movs	r1, #2
 8000be2:	4618      	mov	r0, r3
 8000be4:	f000 fc50 	bl	8001488 <HAL_RCC_ClockConfig>
 8000be8:	4603      	mov	r3, r0
 8000bea:	2b00      	cmp	r3, #0
 8000bec:	d001      	beq.n	8000bf2 <SystemClock_Config+0xca>
  {
    Error_Handler();
 8000bee:	f000 f88b 	bl	8000d08 <Error_Handler>
  }
}
 8000bf2:	bf00      	nop
 8000bf4:	3750      	adds	r7, #80	; 0x50
 8000bf6:	46bd      	mov	sp, r7
 8000bf8:	bd80      	pop	{r7, pc}
 8000bfa:	bf00      	nop
 8000bfc:	40023800 	.word	0x40023800
 8000c00:	40007000 	.word	0x40007000

08000c04 <MX_GPIO_Init>:
  * @brief GPIO Initialization Function
  * @param None
  * @retval None
  */
static void MX_GPIO_Init(void)
{
 8000c04:	b580      	push	{r7, lr}
 8000c06:	b08a      	sub	sp, #40	; 0x28
 8000c08:	af00      	add	r7, sp, #0
  GPIO_InitTypeDef GPIO_InitStruct = {0};
 8000c0a:	f107 0314 	add.w	r3, r7, #20
 8000c0e:	2200      	movs	r2, #0
 8000c10:	601a      	str	r2, [r3, #0]
 8000c12:	605a      	str	r2, [r3, #4]
 8000c14:	609a      	str	r2, [r3, #8]
 8000c16:	60da      	str	r2, [r3, #12]
 8000c18:	611a      	str	r2, [r3, #16]

  /* GPIO Ports Clock Enable */
  __HAL_RCC_GPIOC_CLK_ENABLE();
 8000c1a:	2300      	movs	r3, #0
 8000c1c:	613b      	str	r3, [r7, #16]
 8000c1e:	4b2d      	ldr	r3, [pc, #180]	; (8000cd4 <MX_GPIO_Init+0xd0>)
 8000c20:	6b1b      	ldr	r3, [r3, #48]	; 0x30
 8000c22:	4a2c      	ldr	r2, [pc, #176]	; (8000cd4 <MX_GPIO_Init+0xd0>)
 8000c24:	f043 0304 	orr.w	r3, r3, #4
 8000c28:	6313      	str	r3, [r2, #48]	; 0x30
 8000c2a:	4b2a      	ldr	r3, [pc, #168]	; (8000cd4 <MX_GPIO_Init+0xd0>)
 8000c2c:	6b1b      	ldr	r3, [r3, #48]	; 0x30
 8000c2e:	f003 0304 	and.w	r3, r3, #4
 8000c32:	613b      	str	r3, [r7, #16]
 8000c34:	693b      	ldr	r3, [r7, #16]
  __HAL_RCC_GPIOH_CLK_ENABLE();
 8000c36:	2300      	movs	r3, #0
 8000c38:	60fb      	str	r3, [r7, #12]
 8000c3a:	4b26      	ldr	r3, [pc, #152]	; (8000cd4 <MX_GPIO_Init+0xd0>)
 8000c3c:	6b1b      	ldr	r3, [r3, #48]	; 0x30
 8000c3e:	4a25      	ldr	r2, [pc, #148]	; (8000cd4 <MX_GPIO_Init+0xd0>)
 8000c40:	f043 0380 	orr.w	r3, r3, #128	; 0x80
 8000c44:	6313      	str	r3, [r2, #48]	; 0x30
 8000c46:	4b23      	ldr	r3, [pc, #140]	; (8000cd4 <MX_GPIO_Init+0xd0>)
 8000c48:	6b1b      	ldr	r3, [r3, #48]	; 0x30
 8000c4a:	f003 0380 	and.w	r3, r3, #128	; 0x80
 8000c4e:	60fb      	str	r3, [r7, #12]
 8000c50:	68fb      	ldr	r3, [r7, #12]
  __HAL_RCC_GPIOA_CLK_ENABLE();
 8000c52:	2300      	movs	r3, #0
 8000c54:	60bb      	str	r3, [r7, #8]
 8000c56:	4b1f      	ldr	r3, [pc, #124]	; (8000cd4 <MX_GPIO_Init+0xd0>)
 8000c58:	6b1b      	ldr	r3, [r3, #48]	; 0x30
 8000c5a:	4a1e      	ldr	r2, [pc, #120]	; (8000cd4 <MX_GPIO_Init+0xd0>)
 8000c5c:	f043 0301 	orr.w	r3, r3, #1
 8000c60:	6313      	str	r3, [r2, #48]	; 0x30
 8000c62:	4b1c      	ldr	r3, [pc, #112]	; (8000cd4 <MX_GPIO_Init+0xd0>)
 8000c64:	6b1b      	ldr	r3, [r3, #48]	; 0x30
 8000c66:	f003 0301 	and.w	r3, r3, #1
 8000c6a:	60bb      	str	r3, [r7, #8]
 8000c6c:	68bb      	ldr	r3, [r7, #8]
  __HAL_RCC_GPIOB_CLK_ENABLE();
 8000c6e:	2300      	movs	r3, #0
 8000c70:	607b      	str	r3, [r7, #4]
 8000c72:	4b18      	ldr	r3, [pc, #96]	; (8000cd4 <MX_GPIO_Init+0xd0>)
 8000c74:	6b1b      	ldr	r3, [r3, #48]	; 0x30
 8000c76:	4a17      	ldr	r2, [pc, #92]	; (8000cd4 <MX_GPIO_Init+0xd0>)
 8000c78:	f043 0302 	orr.w	r3, r3, #2
 8000c7c:	6313      	str	r3, [r2, #48]	; 0x30
 8000c7e:	4b15      	ldr	r3, [pc, #84]	; (8000cd4 <MX_GPIO_Init+0xd0>)
 8000c80:	6b1b      	ldr	r3, [r3, #48]	; 0x30
 8000c82:	f003 0302 	and.w	r3, r3, #2
 8000c86:	607b      	str	r3, [r7, #4]
 8000c88:	687b      	ldr	r3, [r7, #4]

  /*Configure GPIO pin Output Level */
  HAL_GPIO_WritePin(GPIOA, GPIO_PIN_5, GPIO_PIN_RESET);
 8000c8a:	2200      	movs	r2, #0
 8000c8c:	2120      	movs	r1, #32
 8000c8e:	4812      	ldr	r0, [pc, #72]	; (8000cd8 <MX_GPIO_Init+0xd4>)
 8000c90:	f000 fbe0 	bl	8001454 <HAL_GPIO_WritePin>

  /*Configure GPIO pin : B1_Pin */
  GPIO_InitStruct.Pin = B1_Pin;
 8000c94:	f44f 5300 	mov.w	r3, #8192	; 0x2000
 8000c98:	617b      	str	r3, [r7, #20]
  GPIO_InitStruct.Mode = GPIO_MODE_IT_FALLING;
 8000c9a:	4b10      	ldr	r3, [pc, #64]	; (8000cdc <MX_GPIO_Init+0xd8>)
 8000c9c:	61bb      	str	r3, [r7, #24]
  GPIO_InitStruct.Pull = GPIO_NOPULL;
 8000c9e:	2300      	movs	r3, #0
 8000ca0:	61fb      	str	r3, [r7, #28]
  HAL_GPIO_Init(B1_GPIO_Port, &GPIO_InitStruct);
 8000ca2:	f107 0314 	add.w	r3, r7, #20
 8000ca6:	4619      	mov	r1, r3
 8000ca8:	480d      	ldr	r0, [pc, #52]	; (8000ce0 <MX_GPIO_Init+0xdc>)
 8000caa:	f000 fa41 	bl	8001130 <HAL_GPIO_Init>

  /*Configure GPIO pin : PA5 */
  GPIO_InitStruct.Pin = GPIO_PIN_5;
 8000cae:	2320      	movs	r3, #32
 8000cb0:	617b      	str	r3, [r7, #20]
  GPIO_InitStruct.Mode = GPIO_MODE_OUTPUT_PP;
 8000cb2:	2301      	movs	r3, #1
 8000cb4:	61bb      	str	r3, [r7, #24]
  GPIO_InitStruct.Pull = GPIO_NOPULL;
 8000cb6:	2300      	movs	r3, #0
 8000cb8:	61fb      	str	r3, [r7, #28]
  GPIO_InitStruct.Speed = GPIO_SPEED_FREQ_LOW;
 8000cba:	2300      	movs	r3, #0
 8000cbc:	623b      	str	r3, [r7, #32]
  HAL_GPIO_Init(GPIOA, &GPIO_InitStruct);
 8000cbe:	f107 0314 	add.w	r3, r7, #20
 8000cc2:	4619      	mov	r1, r3
 8000cc4:	4804      	ldr	r0, [pc, #16]	; (8000cd8 <MX_GPIO_Init+0xd4>)
 8000cc6:	f000 fa33 	bl	8001130 <HAL_GPIO_Init>

}
 8000cca:	bf00      	nop
 8000ccc:	3728      	adds	r7, #40	; 0x28
 8000cce:	46bd      	mov	sp, r7
 8000cd0:	bd80      	pop	{r7, pc}
 8000cd2:	bf00      	nop
 8000cd4:	40023800 	.word	0x40023800
 8000cd8:	40020000 	.word	0x40020000
 8000cdc:	10210000 	.word	0x10210000
 8000ce0:	40020800 	.word	0x40020800

08000ce4 <Ds18b20_handle_init>:
 *
 * @Note              -  none

 */
void Ds18b20_handle_init(DS18B20_Handle_t *pDs18b20)
{
 8000ce4:	b480      	push	{r7}
 8000ce6:	b083      	sub	sp, #12
 8000ce8:	af00      	add	r7, sp, #0
 8000cea:	6078      	str	r0, [r7, #4]
	pDs18b20->GPIO_pin = DS18B20_PIN;
 8000cec:	687b      	ldr	r3, [r7, #4]
 8000cee:	2203      	movs	r2, #3
 8000cf0:	701a      	strb	r2, [r3, #0]
	pDs18b20->pGPIOx = DS18B20_PORT;
 8000cf2:	687b      	ldr	r3, [r7, #4]
 8000cf4:	4a03      	ldr	r2, [pc, #12]	; (8000d04 <Ds18b20_handle_init+0x20>)
 8000cf6:	605a      	str	r2, [r3, #4]
}
 8000cf8:	bf00      	nop
 8000cfa:	370c      	adds	r7, #12
 8000cfc:	46bd      	mov	sp, r7
 8000cfe:	f85d 7b04 	ldr.w	r7, [sp], #4
 8000d02:	4770      	bx	lr
 8000d04:	40020800 	.word	0x40020800

08000d08 <Error_Handler>:
/**
  * @brief  This function is executed in case of error occurrence.
  * @retval None
  */
void Error_Handler(void)
{
 8000d08:	b480      	push	{r7}
 8000d0a:	af00      	add	r7, sp, #0
  /* USER CODE BEGIN Error_Handler_Debug */
  /* User can add his own implementation to report the HAL error return state */
	while(1);
 8000d0c:	e7fe      	b.n	8000d0c <Error_Handler+0x4>
	...

08000d10 <HAL_MspInit>:
/* USER CODE END 0 */
/**
  * Initializes the Global MSP.
  */
void HAL_MspInit(void)
{
 8000d10:	b580      	push	{r7, lr}
 8000d12:	b082      	sub	sp, #8
 8000d14:	af00      	add	r7, sp, #0
  /* USER CODE BEGIN MspInit 0 */

  /* USER CODE END MspInit 0 */

  __HAL_RCC_SYSCFG_CLK_ENABLE();
 8000d16:	2300      	movs	r3, #0
 8000d18:	607b      	str	r3, [r7, #4]
 8000d1a:	4b10      	ldr	r3, [pc, #64]	; (8000d5c <HAL_MspInit+0x4c>)
 8000d1c:	6c5b      	ldr	r3, [r3, #68]	; 0x44
 8000d1e:	4a0f      	ldr	r2, [pc, #60]	; (8000d5c <HAL_MspInit+0x4c>)
 8000d20:	f443 4380 	orr.w	r3, r3, #16384	; 0x4000
 8000d24:	6453      	str	r3, [r2, #68]	; 0x44
 8000d26:	4b0d      	ldr	r3, [pc, #52]	; (8000d5c <HAL_MspInit+0x4c>)
 8000d28:	6c5b      	ldr	r3, [r3, #68]	; 0x44
 8000d2a:	f403 4380 	and.w	r3, r3, #16384	; 0x4000
 8000d2e:	607b      	str	r3, [r7, #4]
 8000d30:	687b      	ldr	r3, [r7, #4]
  __HAL_RCC_PWR_CLK_ENABLE();
 8000d32:	2300      	movs	r3, #0
 8000d34:	603b      	str	r3, [r7, #0]
 8000d36:	4b09      	ldr	r3, [pc, #36]	; (8000d5c <HAL_MspInit+0x4c>)
 8000d38:	6c1b      	ldr	r3, [r3, #64]	; 0x40
 8000d3a:	4a08      	ldr	r2, [pc, #32]	; (8000d5c <HAL_MspInit+0x4c>)
 8000d3c:	f043 5380 	orr.w	r3, r3, #268435456	; 0x10000000
 8000d40:	6413      	str	r3, [r2, #64]	; 0x40
 8000d42:	4b06      	ldr	r3, [pc, #24]	; (8000d5c <HAL_MspInit+0x4c>)
 8000d44:	6c1b      	ldr	r3, [r3, #64]	; 0x40
 8000d46:	f003 5380 	and.w	r3, r3, #268435456	; 0x10000000
 8000d4a:	603b      	str	r3, [r7, #0]
 8000d4c:	683b      	ldr	r3, [r7, #0]

  HAL_NVIC_SetPriorityGrouping(NVIC_PRIORITYGROUP_0);
 8000d4e:	2007      	movs	r0, #7
 8000d50:	f000 f9ba 	bl	80010c8 <HAL_NVIC_SetPriorityGrouping>
  /* System interrupt init*/

  /* USER CODE BEGIN MspInit 1 */

  /* USER CODE END MspInit 1 */
}
 8000d54:	bf00      	nop
 8000d56:	3708      	adds	r7, #8
 8000d58:	46bd      	mov	sp, r7
 8000d5a:	bd80      	pop	{r7, pc}
 8000d5c:	40023800 	.word	0x40023800

08000d60 <HAL_TIM_Base_MspInit>:
* This function configures the hardware resources used in this example
* @param htim_base: TIM_Base handle pointer
* @retval None
*/
void HAL_TIM_Base_MspInit(TIM_HandleTypeDef* htim_base)
{
 8000d60:	b480      	push	{r7}
 8000d62:	b085      	sub	sp, #20
 8000d64:	af00      	add	r7, sp, #0
 8000d66:	6078      	str	r0, [r7, #4]
  if(htim_base->Instance==TIM1)
 8000d68:	687b      	ldr	r3, [r7, #4]
 8000d6a:	681b      	ldr	r3, [r3, #0]
 8000d6c:	4a0b      	ldr	r2, [pc, #44]	; (8000d9c <HAL_TIM_Base_MspInit+0x3c>)
 8000d6e:	4293      	cmp	r3, r2
 8000d70:	d10d      	bne.n	8000d8e <HAL_TIM_Base_MspInit+0x2e>
  {
  /* USER CODE BEGIN TIM1_MspInit 0 */

  /* USER CODE END TIM1_MspInit 0 */
    /* Peripheral clock enable */
    __HAL_RCC_TIM1_CLK_ENABLE();
 8000d72:	2300      	movs	r3, #0
 8000d74:	60fb      	str	r3, [r7, #12]
 8000d76:	4b0a      	ldr	r3, [pc, #40]	; (8000da0 <HAL_TIM_Base_MspInit+0x40>)
 8000d78:	6c5b      	ldr	r3, [r3, #68]	; 0x44
 8000d7a:	4a09      	ldr	r2, [pc, #36]	; (8000da0 <HAL_TIM_Base_MspInit+0x40>)
 8000d7c:	f043 0301 	orr.w	r3, r3, #1
 8000d80:	6453      	str	r3, [r2, #68]	; 0x44
 8000d82:	4b07      	ldr	r3, [pc, #28]	; (8000da0 <HAL_TIM_Base_MspInit+0x40>)
 8000d84:	6c5b      	ldr	r3, [r3, #68]	; 0x44
 8000d86:	f003 0301 	and.w	r3, r3, #1
 8000d8a:	60fb      	str	r3, [r7, #12]
 8000d8c:	68fb      	ldr	r3, [r7, #12]
  /* USER CODE BEGIN TIM1_MspInit 1 */

  /* USER CODE END TIM1_MspInit 1 */
  }

}
 8000d8e:	bf00      	nop
 8000d90:	3714      	adds	r7, #20
 8000d92:	46bd      	mov	sp, r7
 8000d94:	f85d 7b04 	ldr.w	r7, [sp], #4
 8000d98:	4770      	bx	lr
 8000d9a:	bf00      	nop
 8000d9c:	40010000 	.word	0x40010000
 8000da0:	40023800 	.word	0x40023800

08000da4 <NMI_Handler>:
/******************************************************************************/
/**
  * @brief This function handles Non maskable interrupt.
  */
void NMI_Handler(void)
{
 8000da4:	b480      	push	{r7}
 8000da6:	af00      	add	r7, sp, #0

  /* USER CODE END NonMaskableInt_IRQn 0 */
  /* USER CODE BEGIN NonMaskableInt_IRQn 1 */

  /* USER CODE END NonMaskableInt_IRQn 1 */
}
 8000da8:	bf00      	nop
 8000daa:	46bd      	mov	sp, r7
 8000dac:	f85d 7b04 	ldr.w	r7, [sp], #4
 8000db0:	4770      	bx	lr

08000db2 <HardFault_Handler>:

/**
  * @brief This function handles Hard fault interrupt.
  */
void HardFault_Handler(void)
{
 8000db2:	b480      	push	{r7}
 8000db4:	af00      	add	r7, sp, #0
  /* USER CODE BEGIN HardFault_IRQn 0 */

  /* USER CODE END HardFault_IRQn 0 */
  while (1)
 8000db6:	e7fe      	b.n	8000db6 <HardFault_Handler+0x4>

08000db8 <MemManage_Handler>:

/**
  * @brief This function handles Memory management fault.
  */
void MemManage_Handler(void)
{
 8000db8:	b480      	push	{r7}
 8000dba:	af00      	add	r7, sp, #0
  /* USER CODE BEGIN MemoryManagement_IRQn 0 */

  /* USER CODE END MemoryManagement_IRQn 0 */
  while (1)
 8000dbc:	e7fe      	b.n	8000dbc <MemManage_Handler+0x4>

08000dbe <BusFault_Handler>:

/**
  * @brief This function handles Pre-fetch fault, memory access fault.
  */
void BusFault_Handler(void)
{
 8000dbe:	b480      	push	{r7}
 8000dc0:	af00      	add	r7, sp, #0
  /* USER CODE BEGIN BusFault_IRQn 0 */

  /* USER CODE END BusFault_IRQn 0 */
  while (1)
 8000dc2:	e7fe      	b.n	8000dc2 <BusFault_Handler+0x4>

08000dc4 <UsageFault_Handler>:

/**
  * @brief This function handles Undefined instruction or illegal state.
  */
void UsageFault_Handler(void)
{
 8000dc4:	b480      	push	{r7}
 8000dc6:	af00      	add	r7, sp, #0
  /* USER CODE BEGIN UsageFault_IRQn 0 */

  /* USER CODE END UsageFault_IRQn 0 */
  while (1)
 8000dc8:	e7fe      	b.n	8000dc8 <UsageFault_Handler+0x4>

08000dca <SVC_Handler>:

/**
  * @brief This function handles System service call via SWI instruction.
  */
void SVC_Handler(void)
{
 8000dca:	b480      	push	{r7}
 8000dcc:	af00      	add	r7, sp, #0

  /* USER CODE END SVCall_IRQn 0 */
  /* USER CODE BEGIN SVCall_IRQn 1 */

  /* USER CODE END SVCall_IRQn 1 */
}
 8000dce:	bf00      	nop
 8000dd0:	46bd      	mov	sp, r7
 8000dd2:	f85d 7b04 	ldr.w	r7, [sp], #4
 8000dd6:	4770      	bx	lr

08000dd8 <DebugMon_Handler>:

/**
  * @brief This function handles Debug monitor.
  */
void DebugMon_Handler(void)
{
 8000dd8:	b480      	push	{r7}
 8000dda:	af00      	add	r7, sp, #0

  /* USER CODE END DebugMonitor_IRQn 0 */
  /* USER CODE BEGIN DebugMonitor_IRQn 1 */

  /* USER CODE END DebugMonitor_IRQn 1 */
}
 8000ddc:	bf00      	nop
 8000dde:	46bd      	mov	sp, r7
 8000de0:	f85d 7b04 	ldr.w	r7, [sp], #4
 8000de4:	4770      	bx	lr

08000de6 <PendSV_Handler>:

/**
  * @brief This function handles Pendable request for system service.
  */
void PendSV_Handler(void)
{
 8000de6:	b480      	push	{r7}
 8000de8:	af00      	add	r7, sp, #0

  /* USER CODE END PendSV_IRQn 0 */
  /* USER CODE BEGIN PendSV_IRQn 1 */

  /* USER CODE END PendSV_IRQn 1 */
}
 8000dea:	bf00      	nop
 8000dec:	46bd      	mov	sp, r7
 8000dee:	f85d 7b04 	ldr.w	r7, [sp], #4
 8000df2:	4770      	bx	lr

08000df4 <SysTick_Handler>:

/**
  * @brief This function handles System tick timer.
  */
void SysTick_Handler(void)
{
 8000df4:	b580      	push	{r7, lr}
 8000df6:	af00      	add	r7, sp, #0
  /* USER CODE BEGIN SysTick_IRQn 0 */

  /* USER CODE END SysTick_IRQn 0 */
  HAL_IncTick();
 8000df8:	f000 f894 	bl	8000f24 <HAL_IncTick>
  /* USER CODE BEGIN SysTick_IRQn 1 */

  /* USER CODE END SysTick_IRQn 1 */
}
 8000dfc:	bf00      	nop
 8000dfe:	bd80      	pop	{r7, pc}

08000e00 <SystemInit>:
  *         configuration.
  * @param  None
  * @retval None
  */
void SystemInit(void)
{
 8000e00:	b480      	push	{r7}
 8000e02:	af00      	add	r7, sp, #0
  /* FPU settings ------------------------------------------------------------*/
  #if (__FPU_PRESENT == 1) && (__FPU_USED == 1)
    SCB->CPACR |= ((3UL << 10*2)|(3UL << 11*2));  /* set CP10 and CP11 Full Access */
 8000e04:	4b08      	ldr	r3, [pc, #32]	; (8000e28 <SystemInit+0x28>)
 8000e06:	f8d3 3088 	ldr.w	r3, [r3, #136]	; 0x88
 8000e0a:	4a07      	ldr	r2, [pc, #28]	; (8000e28 <SystemInit+0x28>)
 8000e0c:	f443 0370 	orr.w	r3, r3, #15728640	; 0xf00000
 8000e10:	f8c2 3088 	str.w	r3, [r2, #136]	; 0x88

  /* Configure the Vector Table location add offset address ------------------*/
#ifdef VECT_TAB_SRAM
  SCB->VTOR = SRAM_BASE | VECT_TAB_OFFSET; /* Vector Table Relocation in Internal SRAM */
#else
  SCB->VTOR = FLASH_BASE | VECT_TAB_OFFSET; /* Vector Table Relocation in Internal FLASH */
 8000e14:	4b04      	ldr	r3, [pc, #16]	; (8000e28 <SystemInit+0x28>)
 8000e16:	f04f 6200 	mov.w	r2, #134217728	; 0x8000000
 8000e1a:	609a      	str	r2, [r3, #8]
#endif
}
 8000e1c:	bf00      	nop
 8000e1e:	46bd      	mov	sp, r7
 8000e20:	f85d 7b04 	ldr.w	r7, [sp], #4
 8000e24:	4770      	bx	lr
 8000e26:	bf00      	nop
 8000e28:	e000ed00 	.word	0xe000ed00

08000e2c <Reset_Handler>:

    .section  .text.Reset_Handler
  .weak  Reset_Handler
  .type  Reset_Handler, %function
Reset_Handler:  
  ldr   sp, =_estack      /* set stack pointer */
 8000e2c:	f8df d034 	ldr.w	sp, [pc, #52]	; 8000e64 <LoopFillZerobss+0x14>

/* Copy the data segment initializers from flash to SRAM */  
  movs  r1, #0
 8000e30:	2100      	movs	r1, #0
  b  LoopCopyDataInit
 8000e32:	e003      	b.n	8000e3c <LoopCopyDataInit>

08000e34 <CopyDataInit>:

CopyDataInit:
  ldr  r3, =_sidata
 8000e34:	4b0c      	ldr	r3, [pc, #48]	; (8000e68 <LoopFillZerobss+0x18>)
  ldr  r3, [r3, r1]
 8000e36:	585b      	ldr	r3, [r3, r1]
  str  r3, [r0, r1]
 8000e38:	5043      	str	r3, [r0, r1]
  adds  r1, r1, #4
 8000e3a:	3104      	adds	r1, #4

08000e3c <LoopCopyDataInit>:
    
LoopCopyDataInit:
  ldr  r0, =_sdata
 8000e3c:	480b      	ldr	r0, [pc, #44]	; (8000e6c <LoopFillZerobss+0x1c>)
  ldr  r3, =_edata
 8000e3e:	4b0c      	ldr	r3, [pc, #48]	; (8000e70 <LoopFillZerobss+0x20>)
  adds  r2, r0, r1
 8000e40:	1842      	adds	r2, r0, r1
  cmp  r2, r3
 8000e42:	429a      	cmp	r2, r3
  bcc  CopyDataInit
 8000e44:	d3f6      	bcc.n	8000e34 <CopyDataInit>
  ldr  r2, =_sbss
 8000e46:	4a0b      	ldr	r2, [pc, #44]	; (8000e74 <LoopFillZerobss+0x24>)
  b  LoopFillZerobss
 8000e48:	e002      	b.n	8000e50 <LoopFillZerobss>

08000e4a <FillZerobss>:
/* Zero fill the bss segment. */  
FillZerobss:
  movs  r3, #0
 8000e4a:	2300      	movs	r3, #0
  str  r3, [r2], #4
 8000e4c:	f842 3b04 	str.w	r3, [r2], #4

08000e50 <LoopFillZerobss>:
    
LoopFillZerobss:
  ldr  r3, = _ebss
 8000e50:	4b09      	ldr	r3, [pc, #36]	; (8000e78 <LoopFillZerobss+0x28>)
  cmp  r2, r3
 8000e52:	429a      	cmp	r2, r3
  bcc  FillZerobss
 8000e54:	d3f9      	bcc.n	8000e4a <FillZerobss>

/* Call the clock system intitialization function.*/
  bl  SystemInit   
 8000e56:	f7ff ffd3 	bl	8000e00 <SystemInit>
/* Call static constructors */
    bl __libc_init_array
 8000e5a:	f001 fab1 	bl	80023c0 <__libc_init_array>
/* Call the application's entry point.*/
  bl  main
 8000e5e:	f7ff fe27 	bl	8000ab0 <main>
  bx  lr    
 8000e62:	4770      	bx	lr
  ldr   sp, =_estack      /* set stack pointer */
 8000e64:	20020000 	.word	0x20020000
  ldr  r3, =_sidata
 8000e68:	08002450 	.word	0x08002450
  ldr  r0, =_sdata
 8000e6c:	20000000 	.word	0x20000000
  ldr  r3, =_edata
 8000e70:	2000000c 	.word	0x2000000c
  ldr  r2, =_sbss
 8000e74:	2000000c 	.word	0x2000000c
  ldr  r3, = _ebss
 8000e78:	20000074 	.word	0x20000074

08000e7c <ADC_IRQHandler>:
 * @retval None       
*/
    .section  .text.Default_Handler,"ax",%progbits
Default_Handler:
Infinite_Loop:
  b  Infinite_Loop
 8000e7c:	e7fe      	b.n	8000e7c <ADC_IRQHandler>
	...

08000e80 <HAL_Init>:
  *         need to ensure that the SysTick time base is always set to 1 millisecond
  *         to have correct HAL operation.
  * @retval HAL status
  */
HAL_StatusTypeDef HAL_Init(void)
{
 8000e80:	b580      	push	{r7, lr}
 8000e82:	af00      	add	r7, sp, #0
  /* Configure Flash prefetch, Instruction cache, Data cache */ 
#if (INSTRUCTION_CACHE_ENABLE != 0U)
  __HAL_FLASH_INSTRUCTION_CACHE_ENABLE();
 8000e84:	4b0e      	ldr	r3, [pc, #56]	; (8000ec0 <HAL_Init+0x40>)
 8000e86:	681b      	ldr	r3, [r3, #0]
 8000e88:	4a0d      	ldr	r2, [pc, #52]	; (8000ec0 <HAL_Init+0x40>)
 8000e8a:	f443 7300 	orr.w	r3, r3, #512	; 0x200
 8000e8e:	6013      	str	r3, [r2, #0]
#endif /* INSTRUCTION_CACHE_ENABLE */

#if (DATA_CACHE_ENABLE != 0U)
  __HAL_FLASH_DATA_CACHE_ENABLE();
 8000e90:	4b0b      	ldr	r3, [pc, #44]	; (8000ec0 <HAL_Init+0x40>)
 8000e92:	681b      	ldr	r3, [r3, #0]
 8000e94:	4a0a      	ldr	r2, [pc, #40]	; (8000ec0 <HAL_Init+0x40>)
 8000e96:	f443 6380 	orr.w	r3, r3, #1024	; 0x400
 8000e9a:	6013      	str	r3, [r2, #0]
#endif /* DATA_CACHE_ENABLE */

#if (PREFETCH_ENABLE != 0U)
  __HAL_FLASH_PREFETCH_BUFFER_ENABLE();
 8000e9c:	4b08      	ldr	r3, [pc, #32]	; (8000ec0 <HAL_Init+0x40>)
 8000e9e:	681b      	ldr	r3, [r3, #0]
 8000ea0:	4a07      	ldr	r2, [pc, #28]	; (8000ec0 <HAL_Init+0x40>)
 8000ea2:	f443 7380 	orr.w	r3, r3, #256	; 0x100
 8000ea6:	6013      	str	r3, [r2, #0]
#endif /* PREFETCH_ENABLE */

  /* Set Interrupt Group Priority */
  HAL_NVIC_SetPriorityGrouping(NVIC_PRIORITYGROUP_4);
 8000ea8:	2003      	movs	r0, #3
 8000eaa:	f000 f90d 	bl	80010c8 <HAL_NVIC_SetPriorityGrouping>

  /* Use systick as time base source and configure 1ms tick (default clock after Reset is HSI) */
  HAL_InitTick(TICK_INT_PRIORITY);
 8000eae:	2000      	movs	r0, #0
 8000eb0:	f000 f808 	bl	8000ec4 <HAL_InitTick>

  /* Init the low level hardware */
  HAL_MspInit();
 8000eb4:	f7ff ff2c 	bl	8000d10 <HAL_MspInit>

  /* Return function status */
  return HAL_OK;
 8000eb8:	2300      	movs	r3, #0
}
 8000eba:	4618      	mov	r0, r3
 8000ebc:	bd80      	pop	{r7, pc}
 8000ebe:	bf00      	nop
 8000ec0:	40023c00 	.word	0x40023c00

08000ec4 <HAL_InitTick>:
  *       implementation  in user file.
  * @param TickPriority Tick interrupt priority.
  * @retval HAL status
  */
__weak HAL_StatusTypeDef HAL_InitTick(uint32_t TickPriority)
{
 8000ec4:	b580      	push	{r7, lr}
 8000ec6:	b082      	sub	sp, #8
 8000ec8:	af00      	add	r7, sp, #0
 8000eca:	6078      	str	r0, [r7, #4]
  /* Configure the SysTick to have interrupt in 1ms time basis*/
  if (HAL_SYSTICK_Config(SystemCoreClock / (1000U / uwTickFreq)) > 0U)
 8000ecc:	4b12      	ldr	r3, [pc, #72]	; (8000f18 <HAL_InitTick+0x54>)
 8000ece:	681a      	ldr	r2, [r3, #0]
 8000ed0:	4b12      	ldr	r3, [pc, #72]	; (8000f1c <HAL_InitTick+0x58>)
 8000ed2:	781b      	ldrb	r3, [r3, #0]
 8000ed4:	4619      	mov	r1, r3
 8000ed6:	f44f 737a 	mov.w	r3, #1000	; 0x3e8
 8000eda:	fbb3 f3f1 	udiv	r3, r3, r1
 8000ede:	fbb2 f3f3 	udiv	r3, r2, r3
 8000ee2:	4618      	mov	r0, r3
 8000ee4:	f000 f917 	bl	8001116 <HAL_SYSTICK_Config>
 8000ee8:	4603      	mov	r3, r0
 8000eea:	2b00      	cmp	r3, #0
 8000eec:	d001      	beq.n	8000ef2 <HAL_InitTick+0x2e>
  {
    return HAL_ERROR;
 8000eee:	2301      	movs	r3, #1
 8000ef0:	e00e      	b.n	8000f10 <HAL_InitTick+0x4c>
  }

  /* Configure the SysTick IRQ priority */
  if (TickPriority < (1UL << __NVIC_PRIO_BITS))
 8000ef2:	687b      	ldr	r3, [r7, #4]
 8000ef4:	2b0f      	cmp	r3, #15
 8000ef6:	d80a      	bhi.n	8000f0e <HAL_InitTick+0x4a>
  {
    HAL_NVIC_SetPriority(SysTick_IRQn, TickPriority, 0U);
 8000ef8:	2200      	movs	r2, #0
 8000efa:	6879      	ldr	r1, [r7, #4]
 8000efc:	f04f 30ff 	mov.w	r0, #4294967295	; 0xffffffff
 8000f00:	f000 f8ed 	bl	80010de <HAL_NVIC_SetPriority>
    uwTickPrio = TickPriority;
 8000f04:	4a06      	ldr	r2, [pc, #24]	; (8000f20 <HAL_InitTick+0x5c>)
 8000f06:	687b      	ldr	r3, [r7, #4]
 8000f08:	6013      	str	r3, [r2, #0]
  {
    return HAL_ERROR;
  }

  /* Return function status */
  return HAL_OK;
 8000f0a:	2300      	movs	r3, #0
 8000f0c:	e000      	b.n	8000f10 <HAL_InitTick+0x4c>
    return HAL_ERROR;
 8000f0e:	2301      	movs	r3, #1
}
 8000f10:	4618      	mov	r0, r3
 8000f12:	3708      	adds	r7, #8
 8000f14:	46bd      	mov	sp, r7
 8000f16:	bd80      	pop	{r7, pc}
 8000f18:	20000000 	.word	0x20000000
 8000f1c:	20000008 	.word	0x20000008
 8000f20:	20000004 	.word	0x20000004

08000f24 <HAL_IncTick>:
 * @note This function is declared as __weak to be overwritten in case of other 
  *      implementations in user file.
  * @retval None
  */
__weak void HAL_IncTick(void)
{
 8000f24:	b480      	push	{r7}
 8000f26:	af00      	add	r7, sp, #0
  uwTick += uwTickFreq;
 8000f28:	4b06      	ldr	r3, [pc, #24]	; (8000f44 <HAL_IncTick+0x20>)
 8000f2a:	781b      	ldrb	r3, [r3, #0]
 8000f2c:	461a      	mov	r2, r3
 8000f2e:	4b06      	ldr	r3, [pc, #24]	; (8000f48 <HAL_IncTick+0x24>)
 8000f30:	681b      	ldr	r3, [r3, #0]
 8000f32:	4413      	add	r3, r2
 8000f34:	4a04      	ldr	r2, [pc, #16]	; (8000f48 <HAL_IncTick+0x24>)
 8000f36:	6013      	str	r3, [r2, #0]
}
 8000f38:	bf00      	nop
 8000f3a:	46bd      	mov	sp, r7
 8000f3c:	f85d 7b04 	ldr.w	r7, [sp], #4
 8000f40:	4770      	bx	lr
 8000f42:	bf00      	nop
 8000f44:	20000008 	.word	0x20000008
 8000f48:	20000070 	.word	0x20000070

08000f4c <HAL_GetTick>:
  * @note This function is declared as __weak to be overwritten in case of other 
  *       implementations in user file.
  * @retval tick value
  */
__weak uint32_t HAL_GetTick(void)
{
 8000f4c:	b480      	push	{r7}
 8000f4e:	af00      	add	r7, sp, #0
  return uwTick;
 8000f50:	4b03      	ldr	r3, [pc, #12]	; (8000f60 <HAL_GetTick+0x14>)
 8000f52:	681b      	ldr	r3, [r3, #0]
}
 8000f54:	4618      	mov	r0, r3
 8000f56:	46bd      	mov	sp, r7
 8000f58:	f85d 7b04 	ldr.w	r7, [sp], #4
 8000f5c:	4770      	bx	lr
 8000f5e:	bf00      	nop
 8000f60:	20000070 	.word	0x20000070

08000f64 <__NVIC_SetPriorityGrouping>:
           In case of a conflict between priority grouping and available
           priority bits (__NVIC_PRIO_BITS), the smallest possible priority group is set.
  \param [in]      PriorityGroup  Priority grouping field.
 */
__STATIC_INLINE void __NVIC_SetPriorityGrouping(uint32_t PriorityGroup)
{
 8000f64:	b480      	push	{r7}
 8000f66:	b085      	sub	sp, #20
 8000f68:	af00      	add	r7, sp, #0
 8000f6a:	6078      	str	r0, [r7, #4]
  uint32_t reg_value;
  uint32_t PriorityGroupTmp = (PriorityGroup & (uint32_t)0x07UL);             /* only values 0..7 are used          */
 8000f6c:	687b      	ldr	r3, [r7, #4]
 8000f6e:	f003 0307 	and.w	r3, r3, #7
 8000f72:	60fb      	str	r3, [r7, #12]

  reg_value  =  SCB->AIRCR;                                                   /* read old register configuration    */
 8000f74:	4b0c      	ldr	r3, [pc, #48]	; (8000fa8 <__NVIC_SetPriorityGrouping+0x44>)
 8000f76:	68db      	ldr	r3, [r3, #12]
 8000f78:	60bb      	str	r3, [r7, #8]
  reg_value &= ~((uint32_t)(SCB_AIRCR_VECTKEY_Msk | SCB_AIRCR_PRIGROUP_Msk)); /* clear bits to change               */
 8000f7a:	68ba      	ldr	r2, [r7, #8]
 8000f7c:	f64f 03ff 	movw	r3, #63743	; 0xf8ff
 8000f80:	4013      	ands	r3, r2
 8000f82:	60bb      	str	r3, [r7, #8]
  reg_value  =  (reg_value                                   |
                ((uint32_t)0x5FAUL << SCB_AIRCR_VECTKEY_Pos) |
                (PriorityGroupTmp << SCB_AIRCR_PRIGROUP_Pos)  );              /* Insert write key and priority group */
 8000f84:	68fb      	ldr	r3, [r7, #12]
 8000f86:	021a      	lsls	r2, r3, #8
                ((uint32_t)0x5FAUL << SCB_AIRCR_VECTKEY_Pos) |
 8000f88:	68bb      	ldr	r3, [r7, #8]
 8000f8a:	4313      	orrs	r3, r2
  reg_value  =  (reg_value                                   |
 8000f8c:	f043 63bf 	orr.w	r3, r3, #100139008	; 0x5f80000
 8000f90:	f443 3300 	orr.w	r3, r3, #131072	; 0x20000
 8000f94:	60bb      	str	r3, [r7, #8]
  SCB->AIRCR =  reg_value;
 8000f96:	4a04      	ldr	r2, [pc, #16]	; (8000fa8 <__NVIC_SetPriorityGrouping+0x44>)
 8000f98:	68bb      	ldr	r3, [r7, #8]
 8000f9a:	60d3      	str	r3, [r2, #12]
}
 8000f9c:	bf00      	nop
 8000f9e:	3714      	adds	r7, #20
 8000fa0:	46bd      	mov	sp, r7
 8000fa2:	f85d 7b04 	ldr.w	r7, [sp], #4
 8000fa6:	4770      	bx	lr
 8000fa8:	e000ed00 	.word	0xe000ed00

08000fac <__NVIC_GetPriorityGrouping>:
  \brief   Get Priority Grouping
  \details Reads the priority grouping field from the NVIC Interrupt Controller.
  \return                Priority grouping field (SCB->AIRCR [10:8] PRIGROUP field).
 */
__STATIC_INLINE uint32_t __NVIC_GetPriorityGrouping(void)
{
 8000fac:	b480      	push	{r7}
 8000fae:	af00      	add	r7, sp, #0
  return ((uint32_t)((SCB->AIRCR & SCB_AIRCR_PRIGROUP_Msk) >> SCB_AIRCR_PRIGROUP_Pos));
 8000fb0:	4b04      	ldr	r3, [pc, #16]	; (8000fc4 <__NVIC_GetPriorityGrouping+0x18>)
 8000fb2:	68db      	ldr	r3, [r3, #12]
 8000fb4:	0a1b      	lsrs	r3, r3, #8
 8000fb6:	f003 0307 	and.w	r3, r3, #7
}
 8000fba:	4618      	mov	r0, r3
 8000fbc:	46bd      	mov	sp, r7
 8000fbe:	f85d 7b04 	ldr.w	r7, [sp], #4
 8000fc2:	4770      	bx	lr
 8000fc4:	e000ed00 	.word	0xe000ed00

08000fc8 <__NVIC_SetPriority>:
  \param [in]      IRQn  Interrupt number.
  \param [in]  priority  Priority to set.
  \note    The priority cannot be set for every processor exception.
 */
__STATIC_INLINE void __NVIC_SetPriority(IRQn_Type IRQn, uint32_t priority)
{
 8000fc8:	b480      	push	{r7}
 8000fca:	b083      	sub	sp, #12
 8000fcc:	af00      	add	r7, sp, #0
 8000fce:	4603      	mov	r3, r0
 8000fd0:	6039      	str	r1, [r7, #0]
 8000fd2:	71fb      	strb	r3, [r7, #7]
  if ((int32_t)(IRQn) >= 0)
 8000fd4:	f997 3007 	ldrsb.w	r3, [r7, #7]
 8000fd8:	2b00      	cmp	r3, #0
 8000fda:	db0a      	blt.n	8000ff2 <__NVIC_SetPriority+0x2a>
  {
    NVIC->IP[((uint32_t)IRQn)]               = (uint8_t)((priority << (8U - __NVIC_PRIO_BITS)) & (uint32_t)0xFFUL);
 8000fdc:	683b      	ldr	r3, [r7, #0]
 8000fde:	b2da      	uxtb	r2, r3
 8000fe0:	490c      	ldr	r1, [pc, #48]	; (8001014 <__NVIC_SetPriority+0x4c>)
 8000fe2:	f997 3007 	ldrsb.w	r3, [r7, #7]
 8000fe6:	0112      	lsls	r2, r2, #4
 8000fe8:	b2d2      	uxtb	r2, r2
 8000fea:	440b      	add	r3, r1
 8000fec:	f883 2300 	strb.w	r2, [r3, #768]	; 0x300
  }
  else
  {
    SCB->SHP[(((uint32_t)IRQn) & 0xFUL)-4UL] = (uint8_t)((priority << (8U - __NVIC_PRIO_BITS)) & (uint32_t)0xFFUL);
  }
}
 8000ff0:	e00a      	b.n	8001008 <__NVIC_SetPriority+0x40>
    SCB->SHP[(((uint32_t)IRQn) & 0xFUL)-4UL] = (uint8_t)((priority << (8U - __NVIC_PRIO_BITS)) & (uint32_t)0xFFUL);
 8000ff2:	683b      	ldr	r3, [r7, #0]
 8000ff4:	b2da      	uxtb	r2, r3
 8000ff6:	4908      	ldr	r1, [pc, #32]	; (8001018 <__NVIC_SetPriority+0x50>)
 8000ff8:	79fb      	ldrb	r3, [r7, #7]
 8000ffa:	f003 030f 	and.w	r3, r3, #15
 8000ffe:	3b04      	subs	r3, #4
 8001000:	0112      	lsls	r2, r2, #4
 8001002:	b2d2      	uxtb	r2, r2
 8001004:	440b      	add	r3, r1
 8001006:	761a      	strb	r2, [r3, #24]
}
 8001008:	bf00      	nop
 800100a:	370c      	adds	r7, #12
 800100c:	46bd      	mov	sp, r7
 800100e:	f85d 7b04 	ldr.w	r7, [sp], #4
 8001012:	4770      	bx	lr
 8001014:	e000e100 	.word	0xe000e100
 8001018:	e000ed00 	.word	0xe000ed00

0800101c <NVIC_EncodePriority>:
  \param [in]   PreemptPriority  Preemptive priority value (starting from 0).
  \param [in]       SubPriority  Subpriority value (starting from 0).
  \return                        Encoded priority. Value can be used in the function \ref NVIC_SetPriority().
 */
__STATIC_INLINE uint32_t NVIC_EncodePriority (uint32_t PriorityGroup, uint32_t PreemptPriority, uint32_t SubPriority)
{
 800101c:	b480      	push	{r7}
 800101e:	b089      	sub	sp, #36	; 0x24
 8001020:	af00      	add	r7, sp, #0
 8001022:	60f8      	str	r0, [r7, #12]
 8001024:	60b9      	str	r1, [r7, #8]
 8001026:	607a      	str	r2, [r7, #4]
  uint32_t PriorityGroupTmp = (PriorityGroup & (uint32_t)0x07UL);   /* only values 0..7 are used          */
 8001028:	68fb      	ldr	r3, [r7, #12]
 800102a:	f003 0307 	and.w	r3, r3, #7
 800102e:	61fb      	str	r3, [r7, #28]
  uint32_t PreemptPriorityBits;
  uint32_t SubPriorityBits;

  PreemptPriorityBits = ((7UL - PriorityGroupTmp) > (uint32_t)(__NVIC_PRIO_BITS)) ? (uint32_t)(__NVIC_PRIO_BITS) : (uint32_t)(7UL - PriorityGroupTmp);
 8001030:	69fb      	ldr	r3, [r7, #28]
 8001032:	f1c3 0307 	rsb	r3, r3, #7
 8001036:	2b04      	cmp	r3, #4
 8001038:	bf28      	it	cs
 800103a:	2304      	movcs	r3, #4
 800103c:	61bb      	str	r3, [r7, #24]
  SubPriorityBits     = ((PriorityGroupTmp + (uint32_t)(__NVIC_PRIO_BITS)) < (uint32_t)7UL) ? (uint32_t)0UL : (uint32_t)((PriorityGroupTmp - 7UL) + (uint32_t)(__NVIC_PRIO_BITS));
 800103e:	69fb      	ldr	r3, [r7, #28]
 8001040:	3304      	adds	r3, #4
 8001042:	2b06      	cmp	r3, #6
 8001044:	d902      	bls.n	800104c <NVIC_EncodePriority+0x30>
 8001046:	69fb      	ldr	r3, [r7, #28]
 8001048:	3b03      	subs	r3, #3
 800104a:	e000      	b.n	800104e <NVIC_EncodePriority+0x32>
 800104c:	2300      	movs	r3, #0
 800104e:	617b      	str	r3, [r7, #20]

  return (
           ((PreemptPriority & (uint32_t)((1UL << (PreemptPriorityBits)) - 1UL)) << SubPriorityBits) |
 8001050:	f04f 32ff 	mov.w	r2, #4294967295	; 0xffffffff
 8001054:	69bb      	ldr	r3, [r7, #24]
 8001056:	fa02 f303 	lsl.w	r3, r2, r3
 800105a:	43da      	mvns	r2, r3
 800105c:	68bb      	ldr	r3, [r7, #8]
 800105e:	401a      	ands	r2, r3
 8001060:	697b      	ldr	r3, [r7, #20]
 8001062:	409a      	lsls	r2, r3
           ((SubPriority     & (uint32_t)((1UL << (SubPriorityBits    )) - 1UL)))
 8001064:	f04f 31ff 	mov.w	r1, #4294967295	; 0xffffffff
 8001068:	697b      	ldr	r3, [r7, #20]
 800106a:	fa01 f303 	lsl.w	r3, r1, r3
 800106e:	43d9      	mvns	r1, r3
 8001070:	687b      	ldr	r3, [r7, #4]
 8001072:	400b      	ands	r3, r1
           ((PreemptPriority & (uint32_t)((1UL << (PreemptPriorityBits)) - 1UL)) << SubPriorityBits) |
 8001074:	4313      	orrs	r3, r2
         );
}
 8001076:	4618      	mov	r0, r3
 8001078:	3724      	adds	r7, #36	; 0x24
 800107a:	46bd      	mov	sp, r7
 800107c:	f85d 7b04 	ldr.w	r7, [sp], #4
 8001080:	4770      	bx	lr
	...

08001084 <SysTick_Config>:
  \note    When the variable <b>__Vendor_SysTickConfig</b> is set to 1, then the
           function <b>SysTick_Config</b> is not included. In this case, the file <b><i>device</i>.h</b>
           must contain a vendor-specific implementation of this function.
 */
__STATIC_INLINE uint32_t SysTick_Config(uint32_t ticks)
{
 8001084:	b580      	push	{r7, lr}
 8001086:	b082      	sub	sp, #8
 8001088:	af00      	add	r7, sp, #0
 800108a:	6078      	str	r0, [r7, #4]
  if ((ticks - 1UL) > SysTick_LOAD_RELOAD_Msk)
 800108c:	687b      	ldr	r3, [r7, #4]
 800108e:	3b01      	subs	r3, #1
 8001090:	f1b3 7f80 	cmp.w	r3, #16777216	; 0x1000000
 8001094:	d301      	bcc.n	800109a <SysTick_Config+0x16>
  {
    return (1UL);                                                   /* Reload value impossible */
 8001096:	2301      	movs	r3, #1
 8001098:	e00f      	b.n	80010ba <SysTick_Config+0x36>
  }

  SysTick->LOAD  = (uint32_t)(ticks - 1UL);                         /* set reload register */
 800109a:	4a0a      	ldr	r2, [pc, #40]	; (80010c4 <SysTick_Config+0x40>)
 800109c:	687b      	ldr	r3, [r7, #4]
 800109e:	3b01      	subs	r3, #1
 80010a0:	6053      	str	r3, [r2, #4]
  NVIC_SetPriority (SysTick_IRQn, (1UL << __NVIC_PRIO_BITS) - 1UL); /* set Priority for Systick Interrupt */
 80010a2:	210f      	movs	r1, #15
 80010a4:	f04f 30ff 	mov.w	r0, #4294967295	; 0xffffffff
 80010a8:	f7ff ff8e 	bl	8000fc8 <__NVIC_SetPriority>
  SysTick->VAL   = 0UL;                                             /* Load the SysTick Counter Value */
 80010ac:	4b05      	ldr	r3, [pc, #20]	; (80010c4 <SysTick_Config+0x40>)
 80010ae:	2200      	movs	r2, #0
 80010b0:	609a      	str	r2, [r3, #8]
  SysTick->CTRL  = SysTick_CTRL_CLKSOURCE_Msk |
 80010b2:	4b04      	ldr	r3, [pc, #16]	; (80010c4 <SysTick_Config+0x40>)
 80010b4:	2207      	movs	r2, #7
 80010b6:	601a      	str	r2, [r3, #0]
                   SysTick_CTRL_TICKINT_Msk   |
                   SysTick_CTRL_ENABLE_Msk;                         /* Enable SysTick IRQ and SysTick Timer */
  return (0UL);                                                     /* Function successful */
 80010b8:	2300      	movs	r3, #0
}
 80010ba:	4618      	mov	r0, r3
 80010bc:	3708      	adds	r7, #8
 80010be:	46bd      	mov	sp, r7
 80010c0:	bd80      	pop	{r7, pc}
 80010c2:	bf00      	nop
 80010c4:	e000e010 	.word	0xe000e010

080010c8 <HAL_NVIC_SetPriorityGrouping>:
  * @note   When the NVIC_PriorityGroup_0 is selected, IRQ preemption is no more possible. 
  *         The pending IRQ priority will be managed only by the subpriority. 
  * @retval None
  */
void HAL_NVIC_SetPriorityGrouping(uint32_t PriorityGroup)
{
 80010c8:	b580      	push	{r7, lr}
 80010ca:	b082      	sub	sp, #8
 80010cc:	af00      	add	r7, sp, #0
 80010ce:	6078      	str	r0, [r7, #4]
  /* Check the parameters */
  assert_param(IS_NVIC_PRIORITY_GROUP(PriorityGroup));
  
  /* Set the PRIGROUP[10:8] bits according to the PriorityGroup parameter value */
  NVIC_SetPriorityGrouping(PriorityGroup);
 80010d0:	6878      	ldr	r0, [r7, #4]
 80010d2:	f7ff ff47 	bl	8000f64 <__NVIC_SetPriorityGrouping>
}
 80010d6:	bf00      	nop
 80010d8:	3708      	adds	r7, #8
 80010da:	46bd      	mov	sp, r7
 80010dc:	bd80      	pop	{r7, pc}

080010de <HAL_NVIC_SetPriority>:
  *         This parameter can be a value between 0 and 15
  *         A lower priority value indicates a higher priority.          
  * @retval None
  */
void HAL_NVIC_SetPriority(IRQn_Type IRQn, uint32_t PreemptPriority, uint32_t SubPriority)
{ 
 80010de:	b580      	push	{r7, lr}
 80010e0:	b086      	sub	sp, #24
 80010e2:	af00      	add	r7, sp, #0
 80010e4:	4603      	mov	r3, r0
 80010e6:	60b9      	str	r1, [r7, #8]
 80010e8:	607a      	str	r2, [r7, #4]
 80010ea:	73fb      	strb	r3, [r7, #15]
  uint32_t prioritygroup = 0x00U;
 80010ec:	2300      	movs	r3, #0
 80010ee:	617b      	str	r3, [r7, #20]
  
  /* Check the parameters */
  assert_param(IS_NVIC_SUB_PRIORITY(SubPriority));
  assert_param(IS_NVIC_PREEMPTION_PRIORITY(PreemptPriority));
  
  prioritygroup = NVIC_GetPriorityGrouping();
 80010f0:	f7ff ff5c 	bl	8000fac <__NVIC_GetPriorityGrouping>
 80010f4:	6178      	str	r0, [r7, #20]
  
  NVIC_SetPriority(IRQn, NVIC_EncodePriority(prioritygroup, PreemptPriority, SubPriority));
 80010f6:	687a      	ldr	r2, [r7, #4]
 80010f8:	68b9      	ldr	r1, [r7, #8]
 80010fa:	6978      	ldr	r0, [r7, #20]
 80010fc:	f7ff ff8e 	bl	800101c <NVIC_EncodePriority>
 8001100:	4602      	mov	r2, r0
 8001102:	f997 300f 	ldrsb.w	r3, [r7, #15]
 8001106:	4611      	mov	r1, r2
 8001108:	4618      	mov	r0, r3
 800110a:	f7ff ff5d 	bl	8000fc8 <__NVIC_SetPriority>
}
 800110e:	bf00      	nop
 8001110:	3718      	adds	r7, #24
 8001112:	46bd      	mov	sp, r7
 8001114:	bd80      	pop	{r7, pc}

08001116 <HAL_SYSTICK_Config>:
  * @param  TicksNumb Specifies the ticks Number of ticks between two interrupts.
  * @retval status:  - 0  Function succeeded.
  *                  - 1  Function failed.
  */
uint32_t HAL_SYSTICK_Config(uint32_t TicksNumb)
{
 8001116:	b580      	push	{r7, lr}
 8001118:	b082      	sub	sp, #8
 800111a:	af00      	add	r7, sp, #0
 800111c:	6078      	str	r0, [r7, #4]
   return SysTick_Config(TicksNumb);
 800111e:	6878      	ldr	r0, [r7, #4]
 8001120:	f7ff ffb0 	bl	8001084 <SysTick_Config>
 8001124:	4603      	mov	r3, r0
}
 8001126:	4618      	mov	r0, r3
 8001128:	3708      	adds	r7, #8
 800112a:	46bd      	mov	sp, r7
 800112c:	bd80      	pop	{r7, pc}
	...

08001130 <HAL_GPIO_Init>:
  * @param  GPIO_Init pointer to a GPIO_InitTypeDef structure that contains
  *         the configuration information for the specified GPIO peripheral.
  * @retval None
  */
void HAL_GPIO_Init(GPIO_TypeDef  *GPIOx, GPIO_InitTypeDef *GPIO_Init)
{
 8001130:	b480      	push	{r7}
 8001132:	b089      	sub	sp, #36	; 0x24
 8001134:	af00      	add	r7, sp, #0
 8001136:	6078      	str	r0, [r7, #4]
 8001138:	6039      	str	r1, [r7, #0]
  uint32_t position;
  uint32_t ioposition = 0x00U;
 800113a:	2300      	movs	r3, #0
 800113c:	617b      	str	r3, [r7, #20]
  uint32_t iocurrent = 0x00U;
 800113e:	2300      	movs	r3, #0
 8001140:	613b      	str	r3, [r7, #16]
  uint32_t temp = 0x00U;
 8001142:	2300      	movs	r3, #0
 8001144:	61bb      	str	r3, [r7, #24]
  assert_param(IS_GPIO_PIN(GPIO_Init->Pin));
  assert_param(IS_GPIO_MODE(GPIO_Init->Mode));
  assert_param(IS_GPIO_PULL(GPIO_Init->Pull));

  /* Configure the port pins */
  for(position = 0U; position < GPIO_NUMBER; position++)
 8001146:	2300      	movs	r3, #0
 8001148:	61fb      	str	r3, [r7, #28]
 800114a:	e165      	b.n	8001418 <HAL_GPIO_Init+0x2e8>
  {
    /* Get the IO position */
    ioposition = 0x01U << position;
 800114c:	2201      	movs	r2, #1
 800114e:	69fb      	ldr	r3, [r7, #28]
 8001150:	fa02 f303 	lsl.w	r3, r2, r3
 8001154:	617b      	str	r3, [r7, #20]
    /* Get the current IO position */
    iocurrent = (uint32_t)(GPIO_Init->Pin) & ioposition;
 8001156:	683b      	ldr	r3, [r7, #0]
 8001158:	681b      	ldr	r3, [r3, #0]
 800115a:	697a      	ldr	r2, [r7, #20]
 800115c:	4013      	ands	r3, r2
 800115e:	613b      	str	r3, [r7, #16]

    if(iocurrent == ioposition)
 8001160:	693a      	ldr	r2, [r7, #16]
 8001162:	697b      	ldr	r3, [r7, #20]
 8001164:	429a      	cmp	r2, r3
 8001166:	f040 8154 	bne.w	8001412 <HAL_GPIO_Init+0x2e2>
    {
      /*--------------------- GPIO Mode Configuration ------------------------*/
      /* In case of Output or Alternate function mode selection */
      if((GPIO_Init->Mode == GPIO_MODE_OUTPUT_PP) || (GPIO_Init->Mode == GPIO_MODE_AF_PP) ||
 800116a:	683b      	ldr	r3, [r7, #0]
 800116c:	685b      	ldr	r3, [r3, #4]
 800116e:	2b01      	cmp	r3, #1
 8001170:	d00b      	beq.n	800118a <HAL_GPIO_Init+0x5a>
 8001172:	683b      	ldr	r3, [r7, #0]
 8001174:	685b      	ldr	r3, [r3, #4]
 8001176:	2b02      	cmp	r3, #2
 8001178:	d007      	beq.n	800118a <HAL_GPIO_Init+0x5a>
         (GPIO_Init->Mode == GPIO_MODE_OUTPUT_OD) || (GPIO_Init->Mode == GPIO_MODE_AF_OD))
 800117a:	683b      	ldr	r3, [r7, #0]
 800117c:	685b      	ldr	r3, [r3, #4]
      if((GPIO_Init->Mode == GPIO_MODE_OUTPUT_PP) || (GPIO_Init->Mode == GPIO_MODE_AF_PP) ||
 800117e:	2b11      	cmp	r3, #17
 8001180:	d003      	beq.n	800118a <HAL_GPIO_Init+0x5a>
         (GPIO_Init->Mode == GPIO_MODE_OUTPUT_OD) || (GPIO_Init->Mode == GPIO_MODE_AF_OD))
 8001182:	683b      	ldr	r3, [r7, #0]
 8001184:	685b      	ldr	r3, [r3, #4]
 8001186:	2b12      	cmp	r3, #18
 8001188:	d130      	bne.n	80011ec <HAL_GPIO_Init+0xbc>
      {
        /* Check the Speed parameter */
        assert_param(IS_GPIO_SPEED(GPIO_Init->Speed));
        /* Configure the IO Speed */
        temp = GPIOx->OSPEEDR; 
 800118a:	687b      	ldr	r3, [r7, #4]
 800118c:	689b      	ldr	r3, [r3, #8]
 800118e:	61bb      	str	r3, [r7, #24]
        temp &= ~(GPIO_OSPEEDER_OSPEEDR0 << (position * 2U));
 8001190:	69fb      	ldr	r3, [r7, #28]
 8001192:	005b      	lsls	r3, r3, #1
 8001194:	2203      	movs	r2, #3
 8001196:	fa02 f303 	lsl.w	r3, r2, r3
 800119a:	43db      	mvns	r3, r3
 800119c:	69ba      	ldr	r2, [r7, #24]
 800119e:	4013      	ands	r3, r2
 80011a0:	61bb      	str	r3, [r7, #24]
        temp |= (GPIO_Init->Speed << (position * 2U));
 80011a2:	683b      	ldr	r3, [r7, #0]
 80011a4:	68da      	ldr	r2, [r3, #12]
 80011a6:	69fb      	ldr	r3, [r7, #28]
 80011a8:	005b      	lsls	r3, r3, #1
 80011aa:	fa02 f303 	lsl.w	r3, r2, r3
 80011ae:	69ba      	ldr	r2, [r7, #24]
 80011b0:	4313      	orrs	r3, r2
 80011b2:	61bb      	str	r3, [r7, #24]
        GPIOx->OSPEEDR = temp;
 80011b4:	687b      	ldr	r3, [r7, #4]
 80011b6:	69ba      	ldr	r2, [r7, #24]
 80011b8:	609a      	str	r2, [r3, #8]

        /* Configure the IO Output Type */
        temp = GPIOx->OTYPER;
 80011ba:	687b      	ldr	r3, [r7, #4]
 80011bc:	685b      	ldr	r3, [r3, #4]
 80011be:	61bb      	str	r3, [r7, #24]
        temp &= ~(GPIO_OTYPER_OT_0 << position) ;
 80011c0:	2201      	movs	r2, #1
 80011c2:	69fb      	ldr	r3, [r7, #28]
 80011c4:	fa02 f303 	lsl.w	r3, r2, r3
 80011c8:	43db      	mvns	r3, r3
 80011ca:	69ba      	ldr	r2, [r7, #24]
 80011cc:	4013      	ands	r3, r2
 80011ce:	61bb      	str	r3, [r7, #24]
        temp |= (((GPIO_Init->Mode & GPIO_OUTPUT_TYPE) >> 4U) << position);
 80011d0:	683b      	ldr	r3, [r7, #0]
 80011d2:	685b      	ldr	r3, [r3, #4]
 80011d4:	091b      	lsrs	r3, r3, #4
 80011d6:	f003 0201 	and.w	r2, r3, #1
 80011da:	69fb      	ldr	r3, [r7, #28]
 80011dc:	fa02 f303 	lsl.w	r3, r2, r3
 80011e0:	69ba      	ldr	r2, [r7, #24]
 80011e2:	4313      	orrs	r3, r2
 80011e4:	61bb      	str	r3, [r7, #24]
        GPIOx->OTYPER = temp;
 80011e6:	687b      	ldr	r3, [r7, #4]
 80011e8:	69ba      	ldr	r2, [r7, #24]
 80011ea:	605a      	str	r2, [r3, #4]
       }

      /* Activate the Pull-up or Pull down resistor for the current IO */
      temp = GPIOx->PUPDR;
 80011ec:	687b      	ldr	r3, [r7, #4]
 80011ee:	68db      	ldr	r3, [r3, #12]
 80011f0:	61bb      	str	r3, [r7, #24]
      temp &= ~(GPIO_PUPDR_PUPDR0 << (position * 2U));
 80011f2:	69fb      	ldr	r3, [r7, #28]
 80011f4:	005b      	lsls	r3, r3, #1
 80011f6:	2203      	movs	r2, #3
 80011f8:	fa02 f303 	lsl.w	r3, r2, r3
 80011fc:	43db      	mvns	r3, r3
 80011fe:	69ba      	ldr	r2, [r7, #24]
 8001200:	4013      	ands	r3, r2
 8001202:	61bb      	str	r3, [r7, #24]
      temp |= ((GPIO_Init->Pull) << (position * 2U));
 8001204:	683b      	ldr	r3, [r7, #0]
 8001206:	689a      	ldr	r2, [r3, #8]
 8001208:	69fb      	ldr	r3, [r7, #28]
 800120a:	005b      	lsls	r3, r3, #1
 800120c:	fa02 f303 	lsl.w	r3, r2, r3
 8001210:	69ba      	ldr	r2, [r7, #24]
 8001212:	4313      	orrs	r3, r2
 8001214:	61bb      	str	r3, [r7, #24]
      GPIOx->PUPDR = temp;
 8001216:	687b      	ldr	r3, [r7, #4]
 8001218:	69ba      	ldr	r2, [r7, #24]
 800121a:	60da      	str	r2, [r3, #12]

      /* In case of Alternate function mode selection */
      if((GPIO_Init->Mode == GPIO_MODE_AF_PP) || (GPIO_Init->Mode == GPIO_MODE_AF_OD))
 800121c:	683b      	ldr	r3, [r7, #0]
 800121e:	685b      	ldr	r3, [r3, #4]
 8001220:	2b02      	cmp	r3, #2
 8001222:	d003      	beq.n	800122c <HAL_GPIO_Init+0xfc>
 8001224:	683b      	ldr	r3, [r7, #0]
 8001226:	685b      	ldr	r3, [r3, #4]
 8001228:	2b12      	cmp	r3, #18
 800122a:	d123      	bne.n	8001274 <HAL_GPIO_Init+0x144>
      {
        /* Check the Alternate function parameter */
        assert_param(IS_GPIO_AF(GPIO_Init->Alternate));
        /* Configure Alternate function mapped with the current IO */
        temp = GPIOx->AFR[position >> 3U];
 800122c:	69fb      	ldr	r3, [r7, #28]
 800122e:	08da      	lsrs	r2, r3, #3
 8001230:	687b      	ldr	r3, [r7, #4]
 8001232:	3208      	adds	r2, #8
 8001234:	f853 3022 	ldr.w	r3, [r3, r2, lsl #2]
 8001238:	61bb      	str	r3, [r7, #24]
        temp &= ~(0xFU << ((uint32_t)(position & 0x07U) * 4U)) ;
 800123a:	69fb      	ldr	r3, [r7, #28]
 800123c:	f003 0307 	and.w	r3, r3, #7
 8001240:	009b      	lsls	r3, r3, #2
 8001242:	220f      	movs	r2, #15
 8001244:	fa02 f303 	lsl.w	r3, r2, r3
 8001248:	43db      	mvns	r3, r3
 800124a:	69ba      	ldr	r2, [r7, #24]
 800124c:	4013      	ands	r3, r2
 800124e:	61bb      	str	r3, [r7, #24]
        temp |= ((uint32_t)(GPIO_Init->Alternate) << (((uint32_t)position & 0x07U) * 4U));
 8001250:	683b      	ldr	r3, [r7, #0]
 8001252:	691a      	ldr	r2, [r3, #16]
 8001254:	69fb      	ldr	r3, [r7, #28]
 8001256:	f003 0307 	and.w	r3, r3, #7
 800125a:	009b      	lsls	r3, r3, #2
 800125c:	fa02 f303 	lsl.w	r3, r2, r3
 8001260:	69ba      	ldr	r2, [r7, #24]
 8001262:	4313      	orrs	r3, r2
 8001264:	61bb      	str	r3, [r7, #24]
        GPIOx->AFR[position >> 3U] = temp;
 8001266:	69fb      	ldr	r3, [r7, #28]
 8001268:	08da      	lsrs	r2, r3, #3
 800126a:	687b      	ldr	r3, [r7, #4]
 800126c:	3208      	adds	r2, #8
 800126e:	69b9      	ldr	r1, [r7, #24]
 8001270:	f843 1022 	str.w	r1, [r3, r2, lsl #2]
      }

      /* Configure IO Direction mode (Input, Output, Alternate or Analog) */
      temp = GPIOx->MODER;
 8001274:	687b      	ldr	r3, [r7, #4]
 8001276:	681b      	ldr	r3, [r3, #0]
 8001278:	61bb      	str	r3, [r7, #24]
      temp &= ~(GPIO_MODER_MODER0 << (position * 2U));
 800127a:	69fb      	ldr	r3, [r7, #28]
 800127c:	005b      	lsls	r3, r3, #1
 800127e:	2203      	movs	r2, #3
 8001280:	fa02 f303 	lsl.w	r3, r2, r3
 8001284:	43db      	mvns	r3, r3
 8001286:	69ba      	ldr	r2, [r7, #24]
 8001288:	4013      	ands	r3, r2
 800128a:	61bb      	str	r3, [r7, #24]
      temp |= ((GPIO_Init->Mode & GPIO_MODE) << (position * 2U));
 800128c:	683b      	ldr	r3, [r7, #0]
 800128e:	685b      	ldr	r3, [r3, #4]
 8001290:	f003 0203 	and.w	r2, r3, #3
 8001294:	69fb      	ldr	r3, [r7, #28]
 8001296:	005b      	lsls	r3, r3, #1
 8001298:	fa02 f303 	lsl.w	r3, r2, r3
 800129c:	69ba      	ldr	r2, [r7, #24]
 800129e:	4313      	orrs	r3, r2
 80012a0:	61bb      	str	r3, [r7, #24]
      GPIOx->MODER = temp;
 80012a2:	687b      	ldr	r3, [r7, #4]
 80012a4:	69ba      	ldr	r2, [r7, #24]
 80012a6:	601a      	str	r2, [r3, #0]

      /*--------------------- EXTI Mode Configuration ------------------------*/
      /* Configure the External Interrupt or event for the current IO */
      if((GPIO_Init->Mode & EXTI_MODE) == EXTI_MODE)
 80012a8:	683b      	ldr	r3, [r7, #0]
 80012aa:	685b      	ldr	r3, [r3, #4]
 80012ac:	f003 5380 	and.w	r3, r3, #268435456	; 0x10000000
 80012b0:	2b00      	cmp	r3, #0
 80012b2:	f000 80ae 	beq.w	8001412 <HAL_GPIO_Init+0x2e2>
      {
        /* Enable SYSCFG Clock */
        __HAL_RCC_SYSCFG_CLK_ENABLE();
 80012b6:	2300      	movs	r3, #0
 80012b8:	60fb      	str	r3, [r7, #12]
 80012ba:	4b5c      	ldr	r3, [pc, #368]	; (800142c <HAL_GPIO_Init+0x2fc>)
 80012bc:	6c5b      	ldr	r3, [r3, #68]	; 0x44
 80012be:	4a5b      	ldr	r2, [pc, #364]	; (800142c <HAL_GPIO_Init+0x2fc>)
 80012c0:	f443 4380 	orr.w	r3, r3, #16384	; 0x4000
 80012c4:	6453      	str	r3, [r2, #68]	; 0x44
 80012c6:	4b59      	ldr	r3, [pc, #356]	; (800142c <HAL_GPIO_Init+0x2fc>)
 80012c8:	6c5b      	ldr	r3, [r3, #68]	; 0x44
 80012ca:	f403 4380 	and.w	r3, r3, #16384	; 0x4000
 80012ce:	60fb      	str	r3, [r7, #12]
 80012d0:	68fb      	ldr	r3, [r7, #12]

        temp = SYSCFG->EXTICR[position >> 2U];
 80012d2:	4a57      	ldr	r2, [pc, #348]	; (8001430 <HAL_GPIO_Init+0x300>)
 80012d4:	69fb      	ldr	r3, [r7, #28]
 80012d6:	089b      	lsrs	r3, r3, #2
 80012d8:	3302      	adds	r3, #2
 80012da:	f852 3023 	ldr.w	r3, [r2, r3, lsl #2]
 80012de:	61bb      	str	r3, [r7, #24]
        temp &= ~(0x0FU << (4U * (position & 0x03U)));
 80012e0:	69fb      	ldr	r3, [r7, #28]
 80012e2:	f003 0303 	and.w	r3, r3, #3
 80012e6:	009b      	lsls	r3, r3, #2
 80012e8:	220f      	movs	r2, #15
 80012ea:	fa02 f303 	lsl.w	r3, r2, r3
 80012ee:	43db      	mvns	r3, r3
 80012f0:	69ba      	ldr	r2, [r7, #24]
 80012f2:	4013      	ands	r3, r2
 80012f4:	61bb      	str	r3, [r7, #24]
        temp |= ((uint32_t)(GPIO_GET_INDEX(GPIOx)) << (4U * (position & 0x03U)));
 80012f6:	687b      	ldr	r3, [r7, #4]
 80012f8:	4a4e      	ldr	r2, [pc, #312]	; (8001434 <HAL_GPIO_Init+0x304>)
 80012fa:	4293      	cmp	r3, r2
 80012fc:	d025      	beq.n	800134a <HAL_GPIO_Init+0x21a>
 80012fe:	687b      	ldr	r3, [r7, #4]
 8001300:	4a4d      	ldr	r2, [pc, #308]	; (8001438 <HAL_GPIO_Init+0x308>)
 8001302:	4293      	cmp	r3, r2
 8001304:	d01f      	beq.n	8001346 <HAL_GPIO_Init+0x216>
 8001306:	687b      	ldr	r3, [r7, #4]
 8001308:	4a4c      	ldr	r2, [pc, #304]	; (800143c <HAL_GPIO_Init+0x30c>)
 800130a:	4293      	cmp	r3, r2
 800130c:	d019      	beq.n	8001342 <HAL_GPIO_Init+0x212>
 800130e:	687b      	ldr	r3, [r7, #4]
 8001310:	4a4b      	ldr	r2, [pc, #300]	; (8001440 <HAL_GPIO_Init+0x310>)
 8001312:	4293      	cmp	r3, r2
 8001314:	d013      	beq.n	800133e <HAL_GPIO_Init+0x20e>
 8001316:	687b      	ldr	r3, [r7, #4]
 8001318:	4a4a      	ldr	r2, [pc, #296]	; (8001444 <HAL_GPIO_Init+0x314>)
 800131a:	4293      	cmp	r3, r2
 800131c:	d00d      	beq.n	800133a <HAL_GPIO_Init+0x20a>
 800131e:	687b      	ldr	r3, [r7, #4]
 8001320:	4a49      	ldr	r2, [pc, #292]	; (8001448 <HAL_GPIO_Init+0x318>)
 8001322:	4293      	cmp	r3, r2
 8001324:	d007      	beq.n	8001336 <HAL_GPIO_Init+0x206>
 8001326:	687b      	ldr	r3, [r7, #4]
 8001328:	4a48      	ldr	r2, [pc, #288]	; (800144c <HAL_GPIO_Init+0x31c>)
 800132a:	4293      	cmp	r3, r2
 800132c:	d101      	bne.n	8001332 <HAL_GPIO_Init+0x202>
 800132e:	2306      	movs	r3, #6
 8001330:	e00c      	b.n	800134c <HAL_GPIO_Init+0x21c>
 8001332:	2307      	movs	r3, #7
 8001334:	e00a      	b.n	800134c <HAL_GPIO_Init+0x21c>
 8001336:	2305      	movs	r3, #5
 8001338:	e008      	b.n	800134c <HAL_GPIO_Init+0x21c>
 800133a:	2304      	movs	r3, #4
 800133c:	e006      	b.n	800134c <HAL_GPIO_Init+0x21c>
 800133e:	2303      	movs	r3, #3
 8001340:	e004      	b.n	800134c <HAL_GPIO_Init+0x21c>
 8001342:	2302      	movs	r3, #2
 8001344:	e002      	b.n	800134c <HAL_GPIO_Init+0x21c>
 8001346:	2301      	movs	r3, #1
 8001348:	e000      	b.n	800134c <HAL_GPIO_Init+0x21c>
 800134a:	2300      	movs	r3, #0
 800134c:	69fa      	ldr	r2, [r7, #28]
 800134e:	f002 0203 	and.w	r2, r2, #3
 8001352:	0092      	lsls	r2, r2, #2
 8001354:	4093      	lsls	r3, r2
 8001356:	69ba      	ldr	r2, [r7, #24]
 8001358:	4313      	orrs	r3, r2
 800135a:	61bb      	str	r3, [r7, #24]
        SYSCFG->EXTICR[position >> 2U] = temp;
 800135c:	4934      	ldr	r1, [pc, #208]	; (8001430 <HAL_GPIO_Init+0x300>)
 800135e:	69fb      	ldr	r3, [r7, #28]
 8001360:	089b      	lsrs	r3, r3, #2
 8001362:	3302      	adds	r3, #2
 8001364:	69ba      	ldr	r2, [r7, #24]
 8001366:	f841 2023 	str.w	r2, [r1, r3, lsl #2]

        /* Clear EXTI line configuration */
        temp = EXTI->IMR;
 800136a:	4b39      	ldr	r3, [pc, #228]	; (8001450 <HAL_GPIO_Init+0x320>)
 800136c:	681b      	ldr	r3, [r3, #0]
 800136e:	61bb      	str	r3, [r7, #24]
        temp &= ~((uint32_t)iocurrent);
 8001370:	693b      	ldr	r3, [r7, #16]
 8001372:	43db      	mvns	r3, r3
 8001374:	69ba      	ldr	r2, [r7, #24]
 8001376:	4013      	ands	r3, r2
 8001378:	61bb      	str	r3, [r7, #24]
        if((GPIO_Init->Mode & GPIO_MODE_IT) == GPIO_MODE_IT)
 800137a:	683b      	ldr	r3, [r7, #0]
 800137c:	685b      	ldr	r3, [r3, #4]
 800137e:	f403 3380 	and.w	r3, r3, #65536	; 0x10000
 8001382:	2b00      	cmp	r3, #0
 8001384:	d003      	beq.n	800138e <HAL_GPIO_Init+0x25e>
        {
          temp |= iocurrent;
 8001386:	69ba      	ldr	r2, [r7, #24]
 8001388:	693b      	ldr	r3, [r7, #16]
 800138a:	4313      	orrs	r3, r2
 800138c:	61bb      	str	r3, [r7, #24]
        }
        EXTI->IMR = temp;
 800138e:	4a30      	ldr	r2, [pc, #192]	; (8001450 <HAL_GPIO_Init+0x320>)
 8001390:	69bb      	ldr	r3, [r7, #24]
 8001392:	6013      	str	r3, [r2, #0]

        temp = EXTI->EMR;
 8001394:	4b2e      	ldr	r3, [pc, #184]	; (8001450 <HAL_GPIO_Init+0x320>)
 8001396:	685b      	ldr	r3, [r3, #4]
 8001398:	61bb      	str	r3, [r7, #24]
        temp &= ~((uint32_t)iocurrent);
 800139a:	693b      	ldr	r3, [r7, #16]
 800139c:	43db      	mvns	r3, r3
 800139e:	69ba      	ldr	r2, [r7, #24]
 80013a0:	4013      	ands	r3, r2
 80013a2:	61bb      	str	r3, [r7, #24]
        if((GPIO_Init->Mode & GPIO_MODE_EVT) == GPIO_MODE_EVT)
 80013a4:	683b      	ldr	r3, [r7, #0]
 80013a6:	685b      	ldr	r3, [r3, #4]
 80013a8:	f403 3300 	and.w	r3, r3, #131072	; 0x20000
 80013ac:	2b00      	cmp	r3, #0
 80013ae:	d003      	beq.n	80013b8 <HAL_GPIO_Init+0x288>
        {
          temp |= iocurrent;
 80013b0:	69ba      	ldr	r2, [r7, #24]
 80013b2:	693b      	ldr	r3, [r7, #16]
 80013b4:	4313      	orrs	r3, r2
 80013b6:	61bb      	str	r3, [r7, #24]
        }
        EXTI->EMR = temp;
 80013b8:	4a25      	ldr	r2, [pc, #148]	; (8001450 <HAL_GPIO_Init+0x320>)
 80013ba:	69bb      	ldr	r3, [r7, #24]
 80013bc:	6053      	str	r3, [r2, #4]

        /* Clear Rising Falling edge configuration */
        temp = EXTI->RTSR;
 80013be:	4b24      	ldr	r3, [pc, #144]	; (8001450 <HAL_GPIO_Init+0x320>)
 80013c0:	689b      	ldr	r3, [r3, #8]
 80013c2:	61bb      	str	r3, [r7, #24]
        temp &= ~((uint32_t)iocurrent);
 80013c4:	693b      	ldr	r3, [r7, #16]
 80013c6:	43db      	mvns	r3, r3
 80013c8:	69ba      	ldr	r2, [r7, #24]
 80013ca:	4013      	ands	r3, r2
 80013cc:	61bb      	str	r3, [r7, #24]
        if((GPIO_Init->Mode & RISING_EDGE) == RISING_EDGE)
 80013ce:	683b      	ldr	r3, [r7, #0]
 80013d0:	685b      	ldr	r3, [r3, #4]
 80013d2:	f403 1380 	and.w	r3, r3, #1048576	; 0x100000
 80013d6:	2b00      	cmp	r3, #0
 80013d8:	d003      	beq.n	80013e2 <HAL_GPIO_Init+0x2b2>
        {
          temp |= iocurrent;
 80013da:	69ba      	ldr	r2, [r7, #24]
 80013dc:	693b      	ldr	r3, [r7, #16]
 80013de:	4313      	orrs	r3, r2
 80013e0:	61bb      	str	r3, [r7, #24]
        }
        EXTI->RTSR = temp;
 80013e2:	4a1b      	ldr	r2, [pc, #108]	; (8001450 <HAL_GPIO_Init+0x320>)
 80013e4:	69bb      	ldr	r3, [r7, #24]
 80013e6:	6093      	str	r3, [r2, #8]

        temp = EXTI->FTSR;
 80013e8:	4b19      	ldr	r3, [pc, #100]	; (8001450 <HAL_GPIO_Init+0x320>)
 80013ea:	68db      	ldr	r3, [r3, #12]
 80013ec:	61bb      	str	r3, [r7, #24]
        temp &= ~((uint32_t)iocurrent);
 80013ee:	693b      	ldr	r3, [r7, #16]
 80013f0:	43db      	mvns	r3, r3
 80013f2:	69ba      	ldr	r2, [r7, #24]
 80013f4:	4013      	ands	r3, r2
 80013f6:	61bb      	str	r3, [r7, #24]
        if((GPIO_Init->Mode & FALLING_EDGE) == FALLING_EDGE)
 80013f8:	683b      	ldr	r3, [r7, #0]
 80013fa:	685b      	ldr	r3, [r3, #4]
 80013fc:	f403 1300 	and.w	r3, r3, #2097152	; 0x200000
 8001400:	2b00      	cmp	r3, #0
 8001402:	d003      	beq.n	800140c <HAL_GPIO_Init+0x2dc>
        {
          temp |= iocurrent;
 8001404:	69ba      	ldr	r2, [r7, #24]
 8001406:	693b      	ldr	r3, [r7, #16]
 8001408:	4313      	orrs	r3, r2
 800140a:	61bb      	str	r3, [r7, #24]
        }
        EXTI->FTSR = temp;
 800140c:	4a10      	ldr	r2, [pc, #64]	; (8001450 <HAL_GPIO_Init+0x320>)
 800140e:	69bb      	ldr	r3, [r7, #24]
 8001410:	60d3      	str	r3, [r2, #12]
  for(position = 0U; position < GPIO_NUMBER; position++)
 8001412:	69fb      	ldr	r3, [r7, #28]
 8001414:	3301      	adds	r3, #1
 8001416:	61fb      	str	r3, [r7, #28]
 8001418:	69fb      	ldr	r3, [r7, #28]
 800141a:	2b0f      	cmp	r3, #15
 800141c:	f67f ae96 	bls.w	800114c <HAL_GPIO_Init+0x1c>
      }
    }
  }
}
 8001420:	bf00      	nop
 8001422:	3724      	adds	r7, #36	; 0x24
 8001424:	46bd      	mov	sp, r7
 8001426:	f85d 7b04 	ldr.w	r7, [sp], #4
 800142a:	4770      	bx	lr
 800142c:	40023800 	.word	0x40023800
 8001430:	40013800 	.word	0x40013800
 8001434:	40020000 	.word	0x40020000
 8001438:	40020400 	.word	0x40020400
 800143c:	40020800 	.word	0x40020800
 8001440:	40020c00 	.word	0x40020c00
 8001444:	40021000 	.word	0x40021000
 8001448:	40021400 	.word	0x40021400
 800144c:	40021800 	.word	0x40021800
 8001450:	40013c00 	.word	0x40013c00

08001454 <HAL_GPIO_WritePin>:
  *            @arg GPIO_PIN_RESET: to clear the port pin
  *            @arg GPIO_PIN_SET: to set the port pin
  * @retval None
  */
void HAL_GPIO_WritePin(GPIO_TypeDef* GPIOx, uint16_t GPIO_Pin, GPIO_PinState PinState)
{
 8001454:	b480      	push	{r7}
 8001456:	b083      	sub	sp, #12
 8001458:	af00      	add	r7, sp, #0
 800145a:	6078      	str	r0, [r7, #4]
 800145c:	460b      	mov	r3, r1
 800145e:	807b      	strh	r3, [r7, #2]
 8001460:	4613      	mov	r3, r2
 8001462:	707b      	strb	r3, [r7, #1]
  /* Check the parameters */
  assert_param(IS_GPIO_PIN(GPIO_Pin));
  assert_param(IS_GPIO_PIN_ACTION(PinState));

  if(PinState != GPIO_PIN_RESET)
 8001464:	787b      	ldrb	r3, [r7, #1]
 8001466:	2b00      	cmp	r3, #0
 8001468:	d003      	beq.n	8001472 <HAL_GPIO_WritePin+0x1e>
  {
    GPIOx->BSRR = GPIO_Pin;
 800146a:	887a      	ldrh	r2, [r7, #2]
 800146c:	687b      	ldr	r3, [r7, #4]
 800146e:	619a      	str	r2, [r3, #24]
  }
  else
  {
    GPIOx->BSRR = (uint32_t)GPIO_Pin << 16U;
  }
}
 8001470:	e003      	b.n	800147a <HAL_GPIO_WritePin+0x26>
    GPIOx->BSRR = (uint32_t)GPIO_Pin << 16U;
 8001472:	887b      	ldrh	r3, [r7, #2]
 8001474:	041a      	lsls	r2, r3, #16
 8001476:	687b      	ldr	r3, [r7, #4]
 8001478:	619a      	str	r2, [r3, #24]
}
 800147a:	bf00      	nop
 800147c:	370c      	adds	r7, #12
 800147e:	46bd      	mov	sp, r7
 8001480:	f85d 7b04 	ldr.w	r7, [sp], #4
 8001484:	4770      	bx	lr
	...

08001488 <HAL_RCC_ClockConfig>:
  *         HPRE[3:0] bits to ensure that HCLK not exceed the maximum allowed frequency
  *         (for more details refer to section above "Initialization/de-initialization functions")
  * @retval None
  */
HAL_StatusTypeDef HAL_RCC_ClockConfig(RCC_ClkInitTypeDef  *RCC_ClkInitStruct, uint32_t FLatency)
{
 8001488:	b580      	push	{r7, lr}
 800148a:	b084      	sub	sp, #16
 800148c:	af00      	add	r7, sp, #0
 800148e:	6078      	str	r0, [r7, #4]
 8001490:	6039      	str	r1, [r7, #0]
  uint32_t tickstart;

  /* Check Null pointer */
  if(RCC_ClkInitStruct == NULL)
 8001492:	687b      	ldr	r3, [r7, #4]
 8001494:	2b00      	cmp	r3, #0
 8001496:	d101      	bne.n	800149c <HAL_RCC_ClockConfig+0x14>
  {
    return HAL_ERROR;
 8001498:	2301      	movs	r3, #1
 800149a:	e0cc      	b.n	8001636 <HAL_RCC_ClockConfig+0x1ae>
  /* To correctly read data from FLASH memory, the number of wait states (LATENCY)
    must be correctly programmed according to the frequency of the CPU clock
    (HCLK) and the supply voltage of the device. */

  /* Increasing the number of wait states because of higher CPU frequency */
  if(FLatency > __HAL_FLASH_GET_LATENCY())
 800149c:	4b68      	ldr	r3, [pc, #416]	; (8001640 <HAL_RCC_ClockConfig+0x1b8>)
 800149e:	681b      	ldr	r3, [r3, #0]
 80014a0:	f003 030f 	and.w	r3, r3, #15
 80014a4:	683a      	ldr	r2, [r7, #0]
 80014a6:	429a      	cmp	r2, r3
 80014a8:	d90c      	bls.n	80014c4 <HAL_RCC_ClockConfig+0x3c>
  {
    /* Program the new number of wait states to the LATENCY bits in the FLASH_ACR register */
    __HAL_FLASH_SET_LATENCY(FLatency);
 80014aa:	4b65      	ldr	r3, [pc, #404]	; (8001640 <HAL_RCC_ClockConfig+0x1b8>)
 80014ac:	683a      	ldr	r2, [r7, #0]
 80014ae:	b2d2      	uxtb	r2, r2
 80014b0:	701a      	strb	r2, [r3, #0]

    /* Check that the new number of wait states is taken into account to access the Flash
    memory by reading the FLASH_ACR register */
    if(__HAL_FLASH_GET_LATENCY() != FLatency)
 80014b2:	4b63      	ldr	r3, [pc, #396]	; (8001640 <HAL_RCC_ClockConfig+0x1b8>)
 80014b4:	681b      	ldr	r3, [r3, #0]
 80014b6:	f003 030f 	and.w	r3, r3, #15
 80014ba:	683a      	ldr	r2, [r7, #0]
 80014bc:	429a      	cmp	r2, r3
 80014be:	d001      	beq.n	80014c4 <HAL_RCC_ClockConfig+0x3c>
    {
      return HAL_ERROR;
 80014c0:	2301      	movs	r3, #1
 80014c2:	e0b8      	b.n	8001636 <HAL_RCC_ClockConfig+0x1ae>
    }
  }

  /*-------------------------- HCLK Configuration --------------------------*/
  if(((RCC_ClkInitStruct->ClockType) & RCC_CLOCKTYPE_HCLK) == RCC_CLOCKTYPE_HCLK)
 80014c4:	687b      	ldr	r3, [r7, #4]
 80014c6:	681b      	ldr	r3, [r3, #0]
 80014c8:	f003 0302 	and.w	r3, r3, #2
 80014cc:	2b00      	cmp	r3, #0
 80014ce:	d020      	beq.n	8001512 <HAL_RCC_ClockConfig+0x8a>
  {
    /* Set the highest APBx dividers in order to ensure that we do not go through
       a non-spec phase whatever we decrease or increase HCLK. */
    if(((RCC_ClkInitStruct->ClockType) & RCC_CLOCKTYPE_PCLK1) == RCC_CLOCKTYPE_PCLK1)
 80014d0:	687b      	ldr	r3, [r7, #4]
 80014d2:	681b      	ldr	r3, [r3, #0]
 80014d4:	f003 0304 	and.w	r3, r3, #4
 80014d8:	2b00      	cmp	r3, #0
 80014da:	d005      	beq.n	80014e8 <HAL_RCC_ClockConfig+0x60>
    {
      MODIFY_REG(RCC->CFGR, RCC_CFGR_PPRE1, RCC_HCLK_DIV16);
 80014dc:	4b59      	ldr	r3, [pc, #356]	; (8001644 <HAL_RCC_ClockConfig+0x1bc>)
 80014de:	689b      	ldr	r3, [r3, #8]
 80014e0:	4a58      	ldr	r2, [pc, #352]	; (8001644 <HAL_RCC_ClockConfig+0x1bc>)
 80014e2:	f443 53e0 	orr.w	r3, r3, #7168	; 0x1c00
 80014e6:	6093      	str	r3, [r2, #8]
    }

    if(((RCC_ClkInitStruct->ClockType) & RCC_CLOCKTYPE_PCLK2) == RCC_CLOCKTYPE_PCLK2)
 80014e8:	687b      	ldr	r3, [r7, #4]
 80014ea:	681b      	ldr	r3, [r3, #0]
 80014ec:	f003 0308 	and.w	r3, r3, #8
 80014f0:	2b00      	cmp	r3, #0
 80014f2:	d005      	beq.n	8001500 <HAL_RCC_ClockConfig+0x78>
    {
      MODIFY_REG(RCC->CFGR, RCC_CFGR_PPRE2, (RCC_HCLK_DIV16 << 3));
 80014f4:	4b53      	ldr	r3, [pc, #332]	; (8001644 <HAL_RCC_ClockConfig+0x1bc>)
 80014f6:	689b      	ldr	r3, [r3, #8]
 80014f8:	4a52      	ldr	r2, [pc, #328]	; (8001644 <HAL_RCC_ClockConfig+0x1bc>)
 80014fa:	f443 4360 	orr.w	r3, r3, #57344	; 0xe000
 80014fe:	6093      	str	r3, [r2, #8]
    }

    assert_param(IS_RCC_HCLK(RCC_ClkInitStruct->AHBCLKDivider));
    MODIFY_REG(RCC->CFGR, RCC_CFGR_HPRE, RCC_ClkInitStruct->AHBCLKDivider);
 8001500:	4b50      	ldr	r3, [pc, #320]	; (8001644 <HAL_RCC_ClockConfig+0x1bc>)
 8001502:	689b      	ldr	r3, [r3, #8]
 8001504:	f023 02f0 	bic.w	r2, r3, #240	; 0xf0
 8001508:	687b      	ldr	r3, [r7, #4]
 800150a:	689b      	ldr	r3, [r3, #8]
 800150c:	494d      	ldr	r1, [pc, #308]	; (8001644 <HAL_RCC_ClockConfig+0x1bc>)
 800150e:	4313      	orrs	r3, r2
 8001510:	608b      	str	r3, [r1, #8]
  }

  /*------------------------- SYSCLK Configuration ---------------------------*/
  if(((RCC_ClkInitStruct->ClockType) & RCC_CLOCKTYPE_SYSCLK) == RCC_CLOCKTYPE_SYSCLK)
 8001512:	687b      	ldr	r3, [r7, #4]
 8001514:	681b      	ldr	r3, [r3, #0]
 8001516:	f003 0301 	and.w	r3, r3, #1
 800151a:	2b00      	cmp	r3, #0
 800151c:	d044      	beq.n	80015a8 <HAL_RCC_ClockConfig+0x120>
  {
    assert_param(IS_RCC_SYSCLKSOURCE(RCC_ClkInitStruct->SYSCLKSource));

    /* HSE is selected as System Clock Source */
    if(RCC_ClkInitStruct->SYSCLKSource == RCC_SYSCLKSOURCE_HSE)
 800151e:	687b      	ldr	r3, [r7, #4]
 8001520:	685b      	ldr	r3, [r3, #4]
 8001522:	2b01      	cmp	r3, #1
 8001524:	d107      	bne.n	8001536 <HAL_RCC_ClockConfig+0xae>
    {
      /* Check the HSE ready flag */
      if(__HAL_RCC_GET_FLAG(RCC_FLAG_HSERDY) == RESET)
 8001526:	4b47      	ldr	r3, [pc, #284]	; (8001644 <HAL_RCC_ClockConfig+0x1bc>)
 8001528:	681b      	ldr	r3, [r3, #0]
 800152a:	f403 3300 	and.w	r3, r3, #131072	; 0x20000
 800152e:	2b00      	cmp	r3, #0
 8001530:	d119      	bne.n	8001566 <HAL_RCC_ClockConfig+0xde>
      {
        return HAL_ERROR;
 8001532:	2301      	movs	r3, #1
 8001534:	e07f      	b.n	8001636 <HAL_RCC_ClockConfig+0x1ae>
      }
    }
    /* PLL is selected as System Clock Source */
    else if((RCC_ClkInitStruct->SYSCLKSource == RCC_SYSCLKSOURCE_PLLCLK)   ||
 8001536:	687b      	ldr	r3, [r7, #4]
 8001538:	685b      	ldr	r3, [r3, #4]
 800153a:	2b02      	cmp	r3, #2
 800153c:	d003      	beq.n	8001546 <HAL_RCC_ClockConfig+0xbe>
            (RCC_ClkInitStruct->SYSCLKSource == RCC_SYSCLKSOURCE_PLLRCLK))
 800153e:	687b      	ldr	r3, [r7, #4]
 8001540:	685b      	ldr	r3, [r3, #4]
    else if((RCC_ClkInitStruct->SYSCLKSource == RCC_SYSCLKSOURCE_PLLCLK)   ||
 8001542:	2b03      	cmp	r3, #3
 8001544:	d107      	bne.n	8001556 <HAL_RCC_ClockConfig+0xce>
    {
      /* Check the PLL ready flag */
      if(__HAL_RCC_GET_FLAG(RCC_FLAG_PLLRDY) == RESET)
 8001546:	4b3f      	ldr	r3, [pc, #252]	; (8001644 <HAL_RCC_ClockConfig+0x1bc>)
 8001548:	681b      	ldr	r3, [r3, #0]
 800154a:	f003 7300 	and.w	r3, r3, #33554432	; 0x2000000
 800154e:	2b00      	cmp	r3, #0
 8001550:	d109      	bne.n	8001566 <HAL_RCC_ClockConfig+0xde>
      {
        return HAL_ERROR;
 8001552:	2301      	movs	r3, #1
 8001554:	e06f      	b.n	8001636 <HAL_RCC_ClockConfig+0x1ae>
    }
    /* HSI is selected as System Clock Source */
    else
    {
      /* Check the HSI ready flag */
      if(__HAL_RCC_GET_FLAG(RCC_FLAG_HSIRDY) == RESET)
 8001556:	4b3b      	ldr	r3, [pc, #236]	; (8001644 <HAL_RCC_ClockConfig+0x1bc>)
 8001558:	681b      	ldr	r3, [r3, #0]
 800155a:	f003 0302 	and.w	r3, r3, #2
 800155e:	2b00      	cmp	r3, #0
 8001560:	d101      	bne.n	8001566 <HAL_RCC_ClockConfig+0xde>
      {
        return HAL_ERROR;
 8001562:	2301      	movs	r3, #1
 8001564:	e067      	b.n	8001636 <HAL_RCC_ClockConfig+0x1ae>
      }
    }

    __HAL_RCC_SYSCLK_CONFIG(RCC_ClkInitStruct->SYSCLKSource);
 8001566:	4b37      	ldr	r3, [pc, #220]	; (8001644 <HAL_RCC_ClockConfig+0x1bc>)
 8001568:	689b      	ldr	r3, [r3, #8]
 800156a:	f023 0203 	bic.w	r2, r3, #3
 800156e:	687b      	ldr	r3, [r7, #4]
 8001570:	685b      	ldr	r3, [r3, #4]
 8001572:	4934      	ldr	r1, [pc, #208]	; (8001644 <HAL_RCC_ClockConfig+0x1bc>)
 8001574:	4313      	orrs	r3, r2
 8001576:	608b      	str	r3, [r1, #8]

    /* Get Start Tick */
    tickstart = HAL_GetTick();
 8001578:	f7ff fce8 	bl	8000f4c <HAL_GetTick>
 800157c:	60f8      	str	r0, [r7, #12]

    while (__HAL_RCC_GET_SYSCLK_SOURCE() != (RCC_ClkInitStruct->SYSCLKSource << RCC_CFGR_SWS_Pos))
 800157e:	e00a      	b.n	8001596 <HAL_RCC_ClockConfig+0x10e>
    {
      if ((HAL_GetTick() - tickstart) > CLOCKSWITCH_TIMEOUT_VALUE)
 8001580:	f7ff fce4 	bl	8000f4c <HAL_GetTick>
 8001584:	4602      	mov	r2, r0
 8001586:	68fb      	ldr	r3, [r7, #12]
 8001588:	1ad3      	subs	r3, r2, r3
 800158a:	f241 3288 	movw	r2, #5000	; 0x1388
 800158e:	4293      	cmp	r3, r2
 8001590:	d901      	bls.n	8001596 <HAL_RCC_ClockConfig+0x10e>
      {
        return HAL_TIMEOUT;
 8001592:	2303      	movs	r3, #3
 8001594:	e04f      	b.n	8001636 <HAL_RCC_ClockConfig+0x1ae>
    while (__HAL_RCC_GET_SYSCLK_SOURCE() != (RCC_ClkInitStruct->SYSCLKSource << RCC_CFGR_SWS_Pos))
 8001596:	4b2b      	ldr	r3, [pc, #172]	; (8001644 <HAL_RCC_ClockConfig+0x1bc>)
 8001598:	689b      	ldr	r3, [r3, #8]
 800159a:	f003 020c 	and.w	r2, r3, #12
 800159e:	687b      	ldr	r3, [r7, #4]
 80015a0:	685b      	ldr	r3, [r3, #4]
 80015a2:	009b      	lsls	r3, r3, #2
 80015a4:	429a      	cmp	r2, r3
 80015a6:	d1eb      	bne.n	8001580 <HAL_RCC_ClockConfig+0xf8>
      }
    }
  }

  /* Decreasing the number of wait states because of lower CPU frequency */
  if(FLatency < __HAL_FLASH_GET_LATENCY())
 80015a8:	4b25      	ldr	r3, [pc, #148]	; (8001640 <HAL_RCC_ClockConfig+0x1b8>)
 80015aa:	681b      	ldr	r3, [r3, #0]
 80015ac:	f003 030f 	and.w	r3, r3, #15
 80015b0:	683a      	ldr	r2, [r7, #0]
 80015b2:	429a      	cmp	r2, r3
 80015b4:	d20c      	bcs.n	80015d0 <HAL_RCC_ClockConfig+0x148>
  {
     /* Program the new number of wait states to the LATENCY bits in the FLASH_ACR register */
    __HAL_FLASH_SET_LATENCY(FLatency);
 80015b6:	4b22      	ldr	r3, [pc, #136]	; (8001640 <HAL_RCC_ClockConfig+0x1b8>)
 80015b8:	683a      	ldr	r2, [r7, #0]
 80015ba:	b2d2      	uxtb	r2, r2
 80015bc:	701a      	strb	r2, [r3, #0]

    /* Check that the new number of wait states is taken into account to access the Flash
    memory by reading the FLASH_ACR register */
    if(__HAL_FLASH_GET_LATENCY() != FLatency)
 80015be:	4b20      	ldr	r3, [pc, #128]	; (8001640 <HAL_RCC_ClockConfig+0x1b8>)
 80015c0:	681b      	ldr	r3, [r3, #0]
 80015c2:	f003 030f 	and.w	r3, r3, #15
 80015c6:	683a      	ldr	r2, [r7, #0]
 80015c8:	429a      	cmp	r2, r3
 80015ca:	d001      	beq.n	80015d0 <HAL_RCC_ClockConfig+0x148>
    {
      return HAL_ERROR;
 80015cc:	2301      	movs	r3, #1
 80015ce:	e032      	b.n	8001636 <HAL_RCC_ClockConfig+0x1ae>
    }
  }

  /*-------------------------- PCLK1 Configuration ---------------------------*/
  if(((RCC_ClkInitStruct->ClockType) & RCC_CLOCKTYPE_PCLK1) == RCC_CLOCKTYPE_PCLK1)
 80015d0:	687b      	ldr	r3, [r7, #4]
 80015d2:	681b      	ldr	r3, [r3, #0]
 80015d4:	f003 0304 	and.w	r3, r3, #4
 80015d8:	2b00      	cmp	r3, #0
 80015da:	d008      	beq.n	80015ee <HAL_RCC_ClockConfig+0x166>
  {
    assert_param(IS_RCC_PCLK(RCC_ClkInitStruct->APB1CLKDivider));
    MODIFY_REG(RCC->CFGR, RCC_CFGR_PPRE1, RCC_ClkInitStruct->APB1CLKDivider);
 80015dc:	4b19      	ldr	r3, [pc, #100]	; (8001644 <HAL_RCC_ClockConfig+0x1bc>)
 80015de:	689b      	ldr	r3, [r3, #8]
 80015e0:	f423 52e0 	bic.w	r2, r3, #7168	; 0x1c00
 80015e4:	687b      	ldr	r3, [r7, #4]
 80015e6:	68db      	ldr	r3, [r3, #12]
 80015e8:	4916      	ldr	r1, [pc, #88]	; (8001644 <HAL_RCC_ClockConfig+0x1bc>)
 80015ea:	4313      	orrs	r3, r2
 80015ec:	608b      	str	r3, [r1, #8]
  }

  /*-------------------------- PCLK2 Configuration ---------------------------*/
  if(((RCC_ClkInitStruct->ClockType) & RCC_CLOCKTYPE_PCLK2) == RCC_CLOCKTYPE_PCLK2)
 80015ee:	687b      	ldr	r3, [r7, #4]
 80015f0:	681b      	ldr	r3, [r3, #0]
 80015f2:	f003 0308 	and.w	r3, r3, #8
 80015f6:	2b00      	cmp	r3, #0
 80015f8:	d009      	beq.n	800160e <HAL_RCC_ClockConfig+0x186>
  {
    assert_param(IS_RCC_PCLK(RCC_ClkInitStruct->APB2CLKDivider));
    MODIFY_REG(RCC->CFGR, RCC_CFGR_PPRE2, ((RCC_ClkInitStruct->APB2CLKDivider) << 3U));
 80015fa:	4b12      	ldr	r3, [pc, #72]	; (8001644 <HAL_RCC_ClockConfig+0x1bc>)
 80015fc:	689b      	ldr	r3, [r3, #8]
 80015fe:	f423 4260 	bic.w	r2, r3, #57344	; 0xe000
 8001602:	687b      	ldr	r3, [r7, #4]
 8001604:	691b      	ldr	r3, [r3, #16]
 8001606:	00db      	lsls	r3, r3, #3
 8001608:	490e      	ldr	r1, [pc, #56]	; (8001644 <HAL_RCC_ClockConfig+0x1bc>)
 800160a:	4313      	orrs	r3, r2
 800160c:	608b      	str	r3, [r1, #8]
  }

  /* Update the SystemCoreClock global variable */
  SystemCoreClock = HAL_RCC_GetSysClockFreq() >> AHBPrescTable[(RCC->CFGR & RCC_CFGR_HPRE)>> RCC_CFGR_HPRE_Pos];
 800160e:	f000 f821 	bl	8001654 <HAL_RCC_GetSysClockFreq>
 8001612:	4601      	mov	r1, r0
 8001614:	4b0b      	ldr	r3, [pc, #44]	; (8001644 <HAL_RCC_ClockConfig+0x1bc>)
 8001616:	689b      	ldr	r3, [r3, #8]
 8001618:	091b      	lsrs	r3, r3, #4
 800161a:	f003 030f 	and.w	r3, r3, #15
 800161e:	4a0a      	ldr	r2, [pc, #40]	; (8001648 <HAL_RCC_ClockConfig+0x1c0>)
 8001620:	5cd3      	ldrb	r3, [r2, r3]
 8001622:	fa21 f303 	lsr.w	r3, r1, r3
 8001626:	4a09      	ldr	r2, [pc, #36]	; (800164c <HAL_RCC_ClockConfig+0x1c4>)
 8001628:	6013      	str	r3, [r2, #0]

  /* Configure the source of time base considering new system clocks settings */
  HAL_InitTick (uwTickPrio);
 800162a:	4b09      	ldr	r3, [pc, #36]	; (8001650 <HAL_RCC_ClockConfig+0x1c8>)
 800162c:	681b      	ldr	r3, [r3, #0]
 800162e:	4618      	mov	r0, r3
 8001630:	f7ff fc48 	bl	8000ec4 <HAL_InitTick>

  return HAL_OK;
 8001634:	2300      	movs	r3, #0
}
 8001636:	4618      	mov	r0, r3
 8001638:	3710      	adds	r7, #16
 800163a:	46bd      	mov	sp, r7
 800163c:	bd80      	pop	{r7, pc}
 800163e:	bf00      	nop
 8001640:	40023c00 	.word	0x40023c00
 8001644:	40023800 	.word	0x40023800
 8001648:	08002430 	.word	0x08002430
 800164c:	20000000 	.word	0x20000000
 8001650:	20000004 	.word	0x20000004

08001654 <HAL_RCC_GetSysClockFreq>:
  *
  *
  * @retval SYSCLK frequency
  */
uint32_t HAL_RCC_GetSysClockFreq(void)
{
 8001654:	b5f0      	push	{r4, r5, r6, r7, lr}
 8001656:	b087      	sub	sp, #28
 8001658:	af00      	add	r7, sp, #0
  uint32_t pllm = 0U;
 800165a:	2300      	movs	r3, #0
 800165c:	60fb      	str	r3, [r7, #12]
  uint32_t pllvco = 0U;
 800165e:	2300      	movs	r3, #0
 8001660:	617b      	str	r3, [r7, #20]
  uint32_t pllp = 0U;
 8001662:	2300      	movs	r3, #0
 8001664:	60bb      	str	r3, [r7, #8]
  uint32_t pllr = 0U;
 8001666:	2300      	movs	r3, #0
 8001668:	607b      	str	r3, [r7, #4]
  uint32_t sysclockfreq = 0U;
 800166a:	2300      	movs	r3, #0
 800166c:	613b      	str	r3, [r7, #16]

  /* Get SYSCLK source -------------------------------------------------------*/
  switch (RCC->CFGR & RCC_CFGR_SWS)
 800166e:	4bc6      	ldr	r3, [pc, #792]	; (8001988 <HAL_RCC_GetSysClockFreq+0x334>)
 8001670:	689b      	ldr	r3, [r3, #8]
 8001672:	f003 030c 	and.w	r3, r3, #12
 8001676:	2b0c      	cmp	r3, #12
 8001678:	f200 817e 	bhi.w	8001978 <HAL_RCC_GetSysClockFreq+0x324>
 800167c:	a201      	add	r2, pc, #4	; (adr r2, 8001684 <HAL_RCC_GetSysClockFreq+0x30>)
 800167e:	f852 f023 	ldr.w	pc, [r2, r3, lsl #2]
 8001682:	bf00      	nop
 8001684:	080016b9 	.word	0x080016b9
 8001688:	08001979 	.word	0x08001979
 800168c:	08001979 	.word	0x08001979
 8001690:	08001979 	.word	0x08001979
 8001694:	080016bf 	.word	0x080016bf
 8001698:	08001979 	.word	0x08001979
 800169c:	08001979 	.word	0x08001979
 80016a0:	08001979 	.word	0x08001979
 80016a4:	080016c5 	.word	0x080016c5
 80016a8:	08001979 	.word	0x08001979
 80016ac:	08001979 	.word	0x08001979
 80016b0:	08001979 	.word	0x08001979
 80016b4:	08001821 	.word	0x08001821
  {
    case RCC_CFGR_SWS_HSI:  /* HSI used as system clock source */
    {
      sysclockfreq = HSI_VALUE;
 80016b8:	4bb4      	ldr	r3, [pc, #720]	; (800198c <HAL_RCC_GetSysClockFreq+0x338>)
 80016ba:	613b      	str	r3, [r7, #16]
       break;
 80016bc:	e15f      	b.n	800197e <HAL_RCC_GetSysClockFreq+0x32a>
    }
    case RCC_CFGR_SWS_HSE:  /* HSE used as system clock  source */
    {
      sysclockfreq = HSE_VALUE;
 80016be:	4bb4      	ldr	r3, [pc, #720]	; (8001990 <HAL_RCC_GetSysClockFreq+0x33c>)
 80016c0:	613b      	str	r3, [r7, #16]
      break;
 80016c2:	e15c      	b.n	800197e <HAL_RCC_GetSysClockFreq+0x32a>
    }
    case RCC_CFGR_SWS_PLL:  /* PLL/PLLP used as system clock  source */
    {
      /* PLL_VCO = (HSE_VALUE or HSI_VALUE / PLLM) * PLLN
      SYSCLK = PLL_VCO / PLLP */
      pllm = RCC->PLLCFGR & RCC_PLLCFGR_PLLM;
 80016c4:	4bb0      	ldr	r3, [pc, #704]	; (8001988 <HAL_RCC_GetSysClockFreq+0x334>)
 80016c6:	685b      	ldr	r3, [r3, #4]
 80016c8:	f003 033f 	and.w	r3, r3, #63	; 0x3f
 80016cc:	60fb      	str	r3, [r7, #12]
      if(__HAL_RCC_GET_PLL_OSCSOURCE() != RCC_PLLSOURCE_HSI)
 80016ce:	4bae      	ldr	r3, [pc, #696]	; (8001988 <HAL_RCC_GetSysClockFreq+0x334>)
 80016d0:	685b      	ldr	r3, [r3, #4]
 80016d2:	f403 0380 	and.w	r3, r3, #4194304	; 0x400000
 80016d6:	2b00      	cmp	r3, #0
 80016d8:	d04a      	beq.n	8001770 <HAL_RCC_GetSysClockFreq+0x11c>
      {
        /* HSE used as PLL clock source */
        pllvco = (uint32_t) ((((uint64_t) HSE_VALUE * ((uint64_t) ((RCC->PLLCFGR & RCC_PLLCFGR_PLLN) >> RCC_PLLCFGR_PLLN_Pos)))) / (uint64_t)pllm);
 80016da:	4bab      	ldr	r3, [pc, #684]	; (8001988 <HAL_RCC_GetSysClockFreq+0x334>)
 80016dc:	685b      	ldr	r3, [r3, #4]
 80016de:	099b      	lsrs	r3, r3, #6
 80016e0:	f04f 0400 	mov.w	r4, #0
 80016e4:	f240 11ff 	movw	r1, #511	; 0x1ff
 80016e8:	f04f 0200 	mov.w	r2, #0
 80016ec:	ea03 0501 	and.w	r5, r3, r1
 80016f0:	ea04 0602 	and.w	r6, r4, r2
 80016f4:	4629      	mov	r1, r5
 80016f6:	4632      	mov	r2, r6
 80016f8:	f04f 0300 	mov.w	r3, #0
 80016fc:	f04f 0400 	mov.w	r4, #0
 8001700:	0154      	lsls	r4, r2, #5
 8001702:	ea44 64d1 	orr.w	r4, r4, r1, lsr #27
 8001706:	014b      	lsls	r3, r1, #5
 8001708:	4619      	mov	r1, r3
 800170a:	4622      	mov	r2, r4
 800170c:	1b49      	subs	r1, r1, r5
 800170e:	eb62 0206 	sbc.w	r2, r2, r6
 8001712:	f04f 0300 	mov.w	r3, #0
 8001716:	f04f 0400 	mov.w	r4, #0
 800171a:	0194      	lsls	r4, r2, #6
 800171c:	ea44 6491 	orr.w	r4, r4, r1, lsr #26
 8001720:	018b      	lsls	r3, r1, #6
 8001722:	1a5b      	subs	r3, r3, r1
 8001724:	eb64 0402 	sbc.w	r4, r4, r2
 8001728:	f04f 0100 	mov.w	r1, #0
 800172c:	f04f 0200 	mov.w	r2, #0
 8001730:	00e2      	lsls	r2, r4, #3
 8001732:	ea42 7253 	orr.w	r2, r2, r3, lsr #29
 8001736:	00d9      	lsls	r1, r3, #3
 8001738:	460b      	mov	r3, r1
 800173a:	4614      	mov	r4, r2
 800173c:	195b      	adds	r3, r3, r5
 800173e:	eb44 0406 	adc.w	r4, r4, r6
 8001742:	f04f 0100 	mov.w	r1, #0
 8001746:	f04f 0200 	mov.w	r2, #0
 800174a:	0262      	lsls	r2, r4, #9
 800174c:	ea42 52d3 	orr.w	r2, r2, r3, lsr #23
 8001750:	0259      	lsls	r1, r3, #9
 8001752:	460b      	mov	r3, r1
 8001754:	4614      	mov	r4, r2
 8001756:	4618      	mov	r0, r3
 8001758:	4621      	mov	r1, r4
 800175a:	68fb      	ldr	r3, [r7, #12]
 800175c:	f04f 0400 	mov.w	r4, #0
 8001760:	461a      	mov	r2, r3
 8001762:	4623      	mov	r3, r4
 8001764:	f7fe fd50 	bl	8000208 <__aeabi_uldivmod>
 8001768:	4603      	mov	r3, r0
 800176a:	460c      	mov	r4, r1
 800176c:	617b      	str	r3, [r7, #20]
 800176e:	e049      	b.n	8001804 <HAL_RCC_GetSysClockFreq+0x1b0>
      }
      else
      {
        /* HSI used as PLL clock source */
        pllvco = (uint32_t) ((((uint64_t) HSI_VALUE * ((uint64_t) ((RCC->PLLCFGR & RCC_PLLCFGR_PLLN) >> RCC_PLLCFGR_PLLN_Pos)))) / (uint64_t)pllm);
 8001770:	4b85      	ldr	r3, [pc, #532]	; (8001988 <HAL_RCC_GetSysClockFreq+0x334>)
 8001772:	685b      	ldr	r3, [r3, #4]
 8001774:	099b      	lsrs	r3, r3, #6
 8001776:	f04f 0400 	mov.w	r4, #0
 800177a:	f240 11ff 	movw	r1, #511	; 0x1ff
 800177e:	f04f 0200 	mov.w	r2, #0
 8001782:	ea03 0501 	and.w	r5, r3, r1
 8001786:	ea04 0602 	and.w	r6, r4, r2
 800178a:	4629      	mov	r1, r5
 800178c:	4632      	mov	r2, r6
 800178e:	f04f 0300 	mov.w	r3, #0
 8001792:	f04f 0400 	mov.w	r4, #0
 8001796:	0154      	lsls	r4, r2, #5
 8001798:	ea44 64d1 	orr.w	r4, r4, r1, lsr #27
 800179c:	014b      	lsls	r3, r1, #5
 800179e:	4619      	mov	r1, r3
 80017a0:	4622      	mov	r2, r4
 80017a2:	1b49      	subs	r1, r1, r5
 80017a4:	eb62 0206 	sbc.w	r2, r2, r6
 80017a8:	f04f 0300 	mov.w	r3, #0
 80017ac:	f04f 0400 	mov.w	r4, #0
 80017b0:	0194      	lsls	r4, r2, #6
 80017b2:	ea44 6491 	orr.w	r4, r4, r1, lsr #26
 80017b6:	018b      	lsls	r3, r1, #6
 80017b8:	1a5b      	subs	r3, r3, r1
 80017ba:	eb64 0402 	sbc.w	r4, r4, r2
 80017be:	f04f 0100 	mov.w	r1, #0
 80017c2:	f04f 0200 	mov.w	r2, #0
 80017c6:	00e2      	lsls	r2, r4, #3
 80017c8:	ea42 7253 	orr.w	r2, r2, r3, lsr #29
 80017cc:	00d9      	lsls	r1, r3, #3
 80017ce:	460b      	mov	r3, r1
 80017d0:	4614      	mov	r4, r2
 80017d2:	195b      	adds	r3, r3, r5
 80017d4:	eb44 0406 	adc.w	r4, r4, r6
 80017d8:	f04f 0100 	mov.w	r1, #0
 80017dc:	f04f 0200 	mov.w	r2, #0
 80017e0:	02a2      	lsls	r2, r4, #10
 80017e2:	ea42 5293 	orr.w	r2, r2, r3, lsr #22
 80017e6:	0299      	lsls	r1, r3, #10
 80017e8:	460b      	mov	r3, r1
 80017ea:	4614      	mov	r4, r2
 80017ec:	4618      	mov	r0, r3
 80017ee:	4621      	mov	r1, r4
 80017f0:	68fb      	ldr	r3, [r7, #12]
 80017f2:	f04f 0400 	mov.w	r4, #0
 80017f6:	461a      	mov	r2, r3
 80017f8:	4623      	mov	r3, r4
 80017fa:	f7fe fd05 	bl	8000208 <__aeabi_uldivmod>
 80017fe:	4603      	mov	r3, r0
 8001800:	460c      	mov	r4, r1
 8001802:	617b      	str	r3, [r7, #20]
      }
      pllp = ((((RCC->PLLCFGR & RCC_PLLCFGR_PLLP) >> RCC_PLLCFGR_PLLP_Pos) + 1U) *2U);
 8001804:	4b60      	ldr	r3, [pc, #384]	; (8001988 <HAL_RCC_GetSysClockFreq+0x334>)
 8001806:	685b      	ldr	r3, [r3, #4]
 8001808:	0c1b      	lsrs	r3, r3, #16
 800180a:	f003 0303 	and.w	r3, r3, #3
 800180e:	3301      	adds	r3, #1
 8001810:	005b      	lsls	r3, r3, #1
 8001812:	60bb      	str	r3, [r7, #8]

      sysclockfreq = pllvco/pllp;
 8001814:	697a      	ldr	r2, [r7, #20]
 8001816:	68bb      	ldr	r3, [r7, #8]
 8001818:	fbb2 f3f3 	udiv	r3, r2, r3
 800181c:	613b      	str	r3, [r7, #16]
      break;
 800181e:	e0ae      	b.n	800197e <HAL_RCC_GetSysClockFreq+0x32a>
    }
    case RCC_CFGR_SWS_PLLR:  /* PLL/PLLR used as system clock  source */
    {
      /* PLL_VCO = (HSE_VALUE or HSI_VALUE / PLLM) * PLLN
      SYSCLK = PLL_VCO / PLLR */
      pllm = RCC->PLLCFGR & RCC_PLLCFGR_PLLM;
 8001820:	4b59      	ldr	r3, [pc, #356]	; (8001988 <HAL_RCC_GetSysClockFreq+0x334>)
 8001822:	685b      	ldr	r3, [r3, #4]
 8001824:	f003 033f 	and.w	r3, r3, #63	; 0x3f
 8001828:	60fb      	str	r3, [r7, #12]
      if(__HAL_RCC_GET_PLL_OSCSOURCE() != RCC_PLLSOURCE_HSI)
 800182a:	4b57      	ldr	r3, [pc, #348]	; (8001988 <HAL_RCC_GetSysClockFreq+0x334>)
 800182c:	685b      	ldr	r3, [r3, #4]
 800182e:	f403 0380 	and.w	r3, r3, #4194304	; 0x400000
 8001832:	2b00      	cmp	r3, #0
 8001834:	d04a      	beq.n	80018cc <HAL_RCC_GetSysClockFreq+0x278>
      {
        /* HSE used as PLL clock source */
        pllvco = (uint32_t) ((((uint64_t) HSE_VALUE * ((uint64_t) ((RCC->PLLCFGR & RCC_PLLCFGR_PLLN) >> RCC_PLLCFGR_PLLN_Pos)))) / (uint64_t)pllm);
 8001836:	4b54      	ldr	r3, [pc, #336]	; (8001988 <HAL_RCC_GetSysClockFreq+0x334>)
 8001838:	685b      	ldr	r3, [r3, #4]
 800183a:	099b      	lsrs	r3, r3, #6
 800183c:	f04f 0400 	mov.w	r4, #0
 8001840:	f240 11ff 	movw	r1, #511	; 0x1ff
 8001844:	f04f 0200 	mov.w	r2, #0
 8001848:	ea03 0501 	and.w	r5, r3, r1
 800184c:	ea04 0602 	and.w	r6, r4, r2
 8001850:	4629      	mov	r1, r5
 8001852:	4632      	mov	r2, r6
 8001854:	f04f 0300 	mov.w	r3, #0
 8001858:	f04f 0400 	mov.w	r4, #0
 800185c:	0154      	lsls	r4, r2, #5
 800185e:	ea44 64d1 	orr.w	r4, r4, r1, lsr #27
 8001862:	014b      	lsls	r3, r1, #5
 8001864:	4619      	mov	r1, r3
 8001866:	4622      	mov	r2, r4
 8001868:	1b49      	subs	r1, r1, r5
 800186a:	eb62 0206 	sbc.w	r2, r2, r6
 800186e:	f04f 0300 	mov.w	r3, #0
 8001872:	f04f 0400 	mov.w	r4, #0
 8001876:	0194      	lsls	r4, r2, #6
 8001878:	ea44 6491 	orr.w	r4, r4, r1, lsr #26
 800187c:	018b      	lsls	r3, r1, #6
 800187e:	1a5b      	subs	r3, r3, r1
 8001880:	eb64 0402 	sbc.w	r4, r4, r2
 8001884:	f04f 0100 	mov.w	r1, #0
 8001888:	f04f 0200 	mov.w	r2, #0
 800188c:	00e2      	lsls	r2, r4, #3
 800188e:	ea42 7253 	orr.w	r2, r2, r3, lsr #29
 8001892:	00d9      	lsls	r1, r3, #3
 8001894:	460b      	mov	r3, r1
 8001896:	4614      	mov	r4, r2
 8001898:	195b      	adds	r3, r3, r5
 800189a:	eb44 0406 	adc.w	r4, r4, r6
 800189e:	f04f 0100 	mov.w	r1, #0
 80018a2:	f04f 0200 	mov.w	r2, #0
 80018a6:	0262      	lsls	r2, r4, #9
 80018a8:	ea42 52d3 	orr.w	r2, r2, r3, lsr #23
 80018ac:	0259      	lsls	r1, r3, #9
 80018ae:	460b      	mov	r3, r1
 80018b0:	4614      	mov	r4, r2
 80018b2:	4618      	mov	r0, r3
 80018b4:	4621      	mov	r1, r4
 80018b6:	68fb      	ldr	r3, [r7, #12]
 80018b8:	f04f 0400 	mov.w	r4, #0
 80018bc:	461a      	mov	r2, r3
 80018be:	4623      	mov	r3, r4
 80018c0:	f7fe fca2 	bl	8000208 <__aeabi_uldivmod>
 80018c4:	4603      	mov	r3, r0
 80018c6:	460c      	mov	r4, r1
 80018c8:	617b      	str	r3, [r7, #20]
 80018ca:	e049      	b.n	8001960 <HAL_RCC_GetSysClockFreq+0x30c>
      }
      else
      {
        /* HSI used as PLL clock source */
        pllvco = (uint32_t) ((((uint64_t) HSI_VALUE * ((uint64_t) ((RCC->PLLCFGR & RCC_PLLCFGR_PLLN) >> RCC_PLLCFGR_PLLN_Pos)))) / (uint64_t)pllm);
 80018cc:	4b2e      	ldr	r3, [pc, #184]	; (8001988 <HAL_RCC_GetSysClockFreq+0x334>)
 80018ce:	685b      	ldr	r3, [r3, #4]
 80018d0:	099b      	lsrs	r3, r3, #6
 80018d2:	f04f 0400 	mov.w	r4, #0
 80018d6:	f240 11ff 	movw	r1, #511	; 0x1ff
 80018da:	f04f 0200 	mov.w	r2, #0
 80018de:	ea03 0501 	and.w	r5, r3, r1
 80018e2:	ea04 0602 	and.w	r6, r4, r2
 80018e6:	4629      	mov	r1, r5
 80018e8:	4632      	mov	r2, r6
 80018ea:	f04f 0300 	mov.w	r3, #0
 80018ee:	f04f 0400 	mov.w	r4, #0
 80018f2:	0154      	lsls	r4, r2, #5
 80018f4:	ea44 64d1 	orr.w	r4, r4, r1, lsr #27
 80018f8:	014b      	lsls	r3, r1, #5
 80018fa:	4619      	mov	r1, r3
 80018fc:	4622      	mov	r2, r4
 80018fe:	1b49      	subs	r1, r1, r5
 8001900:	eb62 0206 	sbc.w	r2, r2, r6
 8001904:	f04f 0300 	mov.w	r3, #0
 8001908:	f04f 0400 	mov.w	r4, #0
 800190c:	0194      	lsls	r4, r2, #6
 800190e:	ea44 6491 	orr.w	r4, r4, r1, lsr #26
 8001912:	018b      	lsls	r3, r1, #6
 8001914:	1a5b      	subs	r3, r3, r1
 8001916:	eb64 0402 	sbc.w	r4, r4, r2
 800191a:	f04f 0100 	mov.w	r1, #0
 800191e:	f04f 0200 	mov.w	r2, #0
 8001922:	00e2      	lsls	r2, r4, #3
 8001924:	ea42 7253 	orr.w	r2, r2, r3, lsr #29
 8001928:	00d9      	lsls	r1, r3, #3
 800192a:	460b      	mov	r3, r1
 800192c:	4614      	mov	r4, r2
 800192e:	195b      	adds	r3, r3, r5
 8001930:	eb44 0406 	adc.w	r4, r4, r6
 8001934:	f04f 0100 	mov.w	r1, #0
 8001938:	f04f 0200 	mov.w	r2, #0
 800193c:	02a2      	lsls	r2, r4, #10
 800193e:	ea42 5293 	orr.w	r2, r2, r3, lsr #22
 8001942:	0299      	lsls	r1, r3, #10
 8001944:	460b      	mov	r3, r1
 8001946:	4614      	mov	r4, r2
 8001948:	4618      	mov	r0, r3
 800194a:	4621      	mov	r1, r4
 800194c:	68fb      	ldr	r3, [r7, #12]
 800194e:	f04f 0400 	mov.w	r4, #0
 8001952:	461a      	mov	r2, r3
 8001954:	4623      	mov	r3, r4
 8001956:	f7fe fc57 	bl	8000208 <__aeabi_uldivmod>
 800195a:	4603      	mov	r3, r0
 800195c:	460c      	mov	r4, r1
 800195e:	617b      	str	r3, [r7, #20]
      }
      pllr = ((RCC->PLLCFGR & RCC_PLLCFGR_PLLR) >> RCC_PLLCFGR_PLLR_Pos);
 8001960:	4b09      	ldr	r3, [pc, #36]	; (8001988 <HAL_RCC_GetSysClockFreq+0x334>)
 8001962:	685b      	ldr	r3, [r3, #4]
 8001964:	0f1b      	lsrs	r3, r3, #28
 8001966:	f003 0307 	and.w	r3, r3, #7
 800196a:	607b      	str	r3, [r7, #4]

      sysclockfreq = pllvco/pllr;
 800196c:	697a      	ldr	r2, [r7, #20]
 800196e:	687b      	ldr	r3, [r7, #4]
 8001970:	fbb2 f3f3 	udiv	r3, r2, r3
 8001974:	613b      	str	r3, [r7, #16]
      break;
 8001976:	e002      	b.n	800197e <HAL_RCC_GetSysClockFreq+0x32a>
    }
    default:
    {
      sysclockfreq = HSI_VALUE;
 8001978:	4b04      	ldr	r3, [pc, #16]	; (800198c <HAL_RCC_GetSysClockFreq+0x338>)
 800197a:	613b      	str	r3, [r7, #16]
      break;
 800197c:	bf00      	nop
    }
  }
  return sysclockfreq;
 800197e:	693b      	ldr	r3, [r7, #16]
}
 8001980:	4618      	mov	r0, r3
 8001982:	371c      	adds	r7, #28
 8001984:	46bd      	mov	sp, r7
 8001986:	bdf0      	pop	{r4, r5, r6, r7, pc}
 8001988:	40023800 	.word	0x40023800
 800198c:	00f42400 	.word	0x00f42400
 8001990:	007a1200 	.word	0x007a1200

08001994 <HAL_RCC_OscConfig>:
  * @note   This function add the PLL/PLLR factor management during PLL configuration this feature
  *         is only available in STM32F410xx/STM32F446xx/STM32F469xx/STM32F479xx/STM32F412Zx/STM32F412Vx/STM32F412Rx/STM32F412Cx devices
  * @retval HAL status
  */
HAL_StatusTypeDef HAL_RCC_OscConfig(RCC_OscInitTypeDef  *RCC_OscInitStruct)
{
 8001994:	b580      	push	{r7, lr}
 8001996:	b086      	sub	sp, #24
 8001998:	af00      	add	r7, sp, #0
 800199a:	6078      	str	r0, [r7, #4]
  uint32_t tickstart = 0U;
 800199c:	2300      	movs	r3, #0
 800199e:	613b      	str	r3, [r7, #16]

  /* Check the parameters */
  assert_param(IS_RCC_OSCILLATORTYPE(RCC_OscInitStruct->OscillatorType));
  /*------------------------------- HSE Configuration ------------------------*/
  if(((RCC_OscInitStruct->OscillatorType) & RCC_OSCILLATORTYPE_HSE) == RCC_OSCILLATORTYPE_HSE)
 80019a0:	687b      	ldr	r3, [r7, #4]
 80019a2:	681b      	ldr	r3, [r3, #0]
 80019a4:	f003 0301 	and.w	r3, r3, #1
 80019a8:	2b00      	cmp	r3, #0
 80019aa:	f000 8083 	beq.w	8001ab4 <HAL_RCC_OscConfig+0x120>
  {
    /* Check the parameters */
    assert_param(IS_RCC_HSE(RCC_OscInitStruct->HSEState));
    /* When the HSE is used as system clock or clock source for PLL in these cases HSE will not disabled */
#if defined(STM32F446xx)
    if((__HAL_RCC_GET_SYSCLK_SOURCE() == RCC_CFGR_SWS_HSE)                                                                     ||\
 80019ae:	4b95      	ldr	r3, [pc, #596]	; (8001c04 <HAL_RCC_OscConfig+0x270>)
 80019b0:	689b      	ldr	r3, [r3, #8]
 80019b2:	f003 030c 	and.w	r3, r3, #12
 80019b6:	2b04      	cmp	r3, #4
 80019b8:	d019      	beq.n	80019ee <HAL_RCC_OscConfig+0x5a>
      ((__HAL_RCC_GET_SYSCLK_SOURCE() == RCC_CFGR_SWS_PLL) && ((RCC->PLLCFGR & RCC_PLLCFGR_PLLSRC) == RCC_PLLCFGR_PLLSRC_HSE)) ||\
 80019ba:	4b92      	ldr	r3, [pc, #584]	; (8001c04 <HAL_RCC_OscConfig+0x270>)
 80019bc:	689b      	ldr	r3, [r3, #8]
 80019be:	f003 030c 	and.w	r3, r3, #12
    if((__HAL_RCC_GET_SYSCLK_SOURCE() == RCC_CFGR_SWS_HSE)                                                                     ||\
 80019c2:	2b08      	cmp	r3, #8
 80019c4:	d106      	bne.n	80019d4 <HAL_RCC_OscConfig+0x40>
      ((__HAL_RCC_GET_SYSCLK_SOURCE() == RCC_CFGR_SWS_PLL) && ((RCC->PLLCFGR & RCC_PLLCFGR_PLLSRC) == RCC_PLLCFGR_PLLSRC_HSE)) ||\
 80019c6:	4b8f      	ldr	r3, [pc, #572]	; (8001c04 <HAL_RCC_OscConfig+0x270>)
 80019c8:	685b      	ldr	r3, [r3, #4]
 80019ca:	f403 0380 	and.w	r3, r3, #4194304	; 0x400000
 80019ce:	f5b3 0f80 	cmp.w	r3, #4194304	; 0x400000
 80019d2:	d00c      	beq.n	80019ee <HAL_RCC_OscConfig+0x5a>
      ((__HAL_RCC_GET_SYSCLK_SOURCE() == RCC_CFGR_SWS_PLLR) && ((RCC->PLLCFGR & RCC_PLLCFGR_PLLSRC) == RCC_PLLCFGR_PLLSRC_HSE)))
 80019d4:	4b8b      	ldr	r3, [pc, #556]	; (8001c04 <HAL_RCC_OscConfig+0x270>)
 80019d6:	689b      	ldr	r3, [r3, #8]
 80019d8:	f003 030c 	and.w	r3, r3, #12
      ((__HAL_RCC_GET_SYSCLK_SOURCE() == RCC_CFGR_SWS_PLL) && ((RCC->PLLCFGR & RCC_PLLCFGR_PLLSRC) == RCC_PLLCFGR_PLLSRC_HSE)) ||\
 80019dc:	2b0c      	cmp	r3, #12
 80019de:	d112      	bne.n	8001a06 <HAL_RCC_OscConfig+0x72>
      ((__HAL_RCC_GET_SYSCLK_SOURCE() == RCC_CFGR_SWS_PLLR) && ((RCC->PLLCFGR & RCC_PLLCFGR_PLLSRC) == RCC_PLLCFGR_PLLSRC_HSE)))
 80019e0:	4b88      	ldr	r3, [pc, #544]	; (8001c04 <HAL_RCC_OscConfig+0x270>)
 80019e2:	685b      	ldr	r3, [r3, #4]
 80019e4:	f403 0380 	and.w	r3, r3, #4194304	; 0x400000
 80019e8:	f5b3 0f80 	cmp.w	r3, #4194304	; 0x400000
 80019ec:	d10b      	bne.n	8001a06 <HAL_RCC_OscConfig+0x72>
#else
    if((__HAL_RCC_GET_SYSCLK_SOURCE() == RCC_CFGR_SWS_HSE)                                                                     ||\
      ((__HAL_RCC_GET_SYSCLK_SOURCE() == RCC_CFGR_SWS_PLL) && ((RCC->PLLCFGR & RCC_PLLCFGR_PLLSRC) == RCC_PLLCFGR_PLLSRC_HSE)))
#endif /* STM32F446xx */
    {
      if((__HAL_RCC_GET_FLAG(RCC_FLAG_HSERDY) != RESET) && (RCC_OscInitStruct->HSEState == RCC_HSE_OFF))
 80019ee:	4b85      	ldr	r3, [pc, #532]	; (8001c04 <HAL_RCC_OscConfig+0x270>)
 80019f0:	681b      	ldr	r3, [r3, #0]
 80019f2:	f403 3300 	and.w	r3, r3, #131072	; 0x20000
 80019f6:	2b00      	cmp	r3, #0
 80019f8:	d05b      	beq.n	8001ab2 <HAL_RCC_OscConfig+0x11e>
 80019fa:	687b      	ldr	r3, [r7, #4]
 80019fc:	685b      	ldr	r3, [r3, #4]
 80019fe:	2b00      	cmp	r3, #0
 8001a00:	d157      	bne.n	8001ab2 <HAL_RCC_OscConfig+0x11e>
      {
        return HAL_ERROR;
 8001a02:	2301      	movs	r3, #1
 8001a04:	e216      	b.n	8001e34 <HAL_RCC_OscConfig+0x4a0>
      }
    }
    else
    {
      /* Set the new HSE configuration ---------------------------------------*/
      __HAL_RCC_HSE_CONFIG(RCC_OscInitStruct->HSEState);
 8001a06:	687b      	ldr	r3, [r7, #4]
 8001a08:	685b      	ldr	r3, [r3, #4]
 8001a0a:	f5b3 3f80 	cmp.w	r3, #65536	; 0x10000
 8001a0e:	d106      	bne.n	8001a1e <HAL_RCC_OscConfig+0x8a>
 8001a10:	4b7c      	ldr	r3, [pc, #496]	; (8001c04 <HAL_RCC_OscConfig+0x270>)
 8001a12:	681b      	ldr	r3, [r3, #0]
 8001a14:	4a7b      	ldr	r2, [pc, #492]	; (8001c04 <HAL_RCC_OscConfig+0x270>)
 8001a16:	f443 3380 	orr.w	r3, r3, #65536	; 0x10000
 8001a1a:	6013      	str	r3, [r2, #0]
 8001a1c:	e01d      	b.n	8001a5a <HAL_RCC_OscConfig+0xc6>
 8001a1e:	687b      	ldr	r3, [r7, #4]
 8001a20:	685b      	ldr	r3, [r3, #4]
 8001a22:	f5b3 2fa0 	cmp.w	r3, #327680	; 0x50000
 8001a26:	d10c      	bne.n	8001a42 <HAL_RCC_OscConfig+0xae>
 8001a28:	4b76      	ldr	r3, [pc, #472]	; (8001c04 <HAL_RCC_OscConfig+0x270>)
 8001a2a:	681b      	ldr	r3, [r3, #0]
 8001a2c:	4a75      	ldr	r2, [pc, #468]	; (8001c04 <HAL_RCC_OscConfig+0x270>)
 8001a2e:	f443 2380 	orr.w	r3, r3, #262144	; 0x40000
 8001a32:	6013      	str	r3, [r2, #0]
 8001a34:	4b73      	ldr	r3, [pc, #460]	; (8001c04 <HAL_RCC_OscConfig+0x270>)
 8001a36:	681b      	ldr	r3, [r3, #0]
 8001a38:	4a72      	ldr	r2, [pc, #456]	; (8001c04 <HAL_RCC_OscConfig+0x270>)
 8001a3a:	f443 3380 	orr.w	r3, r3, #65536	; 0x10000
 8001a3e:	6013      	str	r3, [r2, #0]
 8001a40:	e00b      	b.n	8001a5a <HAL_RCC_OscConfig+0xc6>
 8001a42:	4b70      	ldr	r3, [pc, #448]	; (8001c04 <HAL_RCC_OscConfig+0x270>)
 8001a44:	681b      	ldr	r3, [r3, #0]
 8001a46:	4a6f      	ldr	r2, [pc, #444]	; (8001c04 <HAL_RCC_OscConfig+0x270>)
 8001a48:	f423 3380 	bic.w	r3, r3, #65536	; 0x10000
 8001a4c:	6013      	str	r3, [r2, #0]
 8001a4e:	4b6d      	ldr	r3, [pc, #436]	; (8001c04 <HAL_RCC_OscConfig+0x270>)
 8001a50:	681b      	ldr	r3, [r3, #0]
 8001a52:	4a6c      	ldr	r2, [pc, #432]	; (8001c04 <HAL_RCC_OscConfig+0x270>)
 8001a54:	f423 2380 	bic.w	r3, r3, #262144	; 0x40000
 8001a58:	6013      	str	r3, [r2, #0]

      /* Check the HSE State */
      if((RCC_OscInitStruct->HSEState) != RCC_HSE_OFF)
 8001a5a:	687b      	ldr	r3, [r7, #4]
 8001a5c:	685b      	ldr	r3, [r3, #4]
 8001a5e:	2b00      	cmp	r3, #0
 8001a60:	d013      	beq.n	8001a8a <HAL_RCC_OscConfig+0xf6>
      {
        /* Get Start Tick*/
        tickstart = HAL_GetTick();
 8001a62:	f7ff fa73 	bl	8000f4c <HAL_GetTick>
 8001a66:	6138      	str	r0, [r7, #16]

        /* Wait till HSE is ready */
        while(__HAL_RCC_GET_FLAG(RCC_FLAG_HSERDY) == RESET)
 8001a68:	e008      	b.n	8001a7c <HAL_RCC_OscConfig+0xe8>
        {
          if((HAL_GetTick() - tickstart ) > HSE_TIMEOUT_VALUE)
 8001a6a:	f7ff fa6f 	bl	8000f4c <HAL_GetTick>
 8001a6e:	4602      	mov	r2, r0
 8001a70:	693b      	ldr	r3, [r7, #16]
 8001a72:	1ad3      	subs	r3, r2, r3
 8001a74:	2b64      	cmp	r3, #100	; 0x64
 8001a76:	d901      	bls.n	8001a7c <HAL_RCC_OscConfig+0xe8>
          {
            return HAL_TIMEOUT;
 8001a78:	2303      	movs	r3, #3
 8001a7a:	e1db      	b.n	8001e34 <HAL_RCC_OscConfig+0x4a0>
        while(__HAL_RCC_GET_FLAG(RCC_FLAG_HSERDY) == RESET)
 8001a7c:	4b61      	ldr	r3, [pc, #388]	; (8001c04 <HAL_RCC_OscConfig+0x270>)
 8001a7e:	681b      	ldr	r3, [r3, #0]
 8001a80:	f403 3300 	and.w	r3, r3, #131072	; 0x20000
 8001a84:	2b00      	cmp	r3, #0
 8001a86:	d0f0      	beq.n	8001a6a <HAL_RCC_OscConfig+0xd6>
 8001a88:	e014      	b.n	8001ab4 <HAL_RCC_OscConfig+0x120>
        }
      }
      else
      {
        /* Get Start Tick*/
        tickstart = HAL_GetTick();
 8001a8a:	f7ff fa5f 	bl	8000f4c <HAL_GetTick>
 8001a8e:	6138      	str	r0, [r7, #16]

        /* Wait till HSE is bypassed or disabled */
        while(__HAL_RCC_GET_FLAG(RCC_FLAG_HSERDY) != RESET)
 8001a90:	e008      	b.n	8001aa4 <HAL_RCC_OscConfig+0x110>
        {
          if((HAL_GetTick() - tickstart ) > HSE_TIMEOUT_VALUE)
 8001a92:	f7ff fa5b 	bl	8000f4c <HAL_GetTick>
 8001a96:	4602      	mov	r2, r0
 8001a98:	693b      	ldr	r3, [r7, #16]
 8001a9a:	1ad3      	subs	r3, r2, r3
 8001a9c:	2b64      	cmp	r3, #100	; 0x64
 8001a9e:	d901      	bls.n	8001aa4 <HAL_RCC_OscConfig+0x110>
          {
            return HAL_TIMEOUT;
 8001aa0:	2303      	movs	r3, #3
 8001aa2:	e1c7      	b.n	8001e34 <HAL_RCC_OscConfig+0x4a0>
        while(__HAL_RCC_GET_FLAG(RCC_FLAG_HSERDY) != RESET)
 8001aa4:	4b57      	ldr	r3, [pc, #348]	; (8001c04 <HAL_RCC_OscConfig+0x270>)
 8001aa6:	681b      	ldr	r3, [r3, #0]
 8001aa8:	f403 3300 	and.w	r3, r3, #131072	; 0x20000
 8001aac:	2b00      	cmp	r3, #0
 8001aae:	d1f0      	bne.n	8001a92 <HAL_RCC_OscConfig+0xfe>
 8001ab0:	e000      	b.n	8001ab4 <HAL_RCC_OscConfig+0x120>
      if((__HAL_RCC_GET_FLAG(RCC_FLAG_HSERDY) != RESET) && (RCC_OscInitStruct->HSEState == RCC_HSE_OFF))
 8001ab2:	bf00      	nop
        }
      }
    }
  }
  /*----------------------------- HSI Configuration --------------------------*/
  if(((RCC_OscInitStruct->OscillatorType) & RCC_OSCILLATORTYPE_HSI) == RCC_OSCILLATORTYPE_HSI)
 8001ab4:	687b      	ldr	r3, [r7, #4]
 8001ab6:	681b      	ldr	r3, [r3, #0]
 8001ab8:	f003 0302 	and.w	r3, r3, #2
 8001abc:	2b00      	cmp	r3, #0
 8001abe:	d06f      	beq.n	8001ba0 <HAL_RCC_OscConfig+0x20c>
    assert_param(IS_RCC_HSI(RCC_OscInitStruct->HSIState));
    assert_param(IS_RCC_CALIBRATION_VALUE(RCC_OscInitStruct->HSICalibrationValue));

    /* Check if HSI is used as system clock or as PLL source when PLL is selected as system clock */
#if defined(STM32F446xx)
    if((__HAL_RCC_GET_SYSCLK_SOURCE() == RCC_CFGR_SWS_HSI)                                                                     ||\
 8001ac0:	4b50      	ldr	r3, [pc, #320]	; (8001c04 <HAL_RCC_OscConfig+0x270>)
 8001ac2:	689b      	ldr	r3, [r3, #8]
 8001ac4:	f003 030c 	and.w	r3, r3, #12
 8001ac8:	2b00      	cmp	r3, #0
 8001aca:	d017      	beq.n	8001afc <HAL_RCC_OscConfig+0x168>
      ((__HAL_RCC_GET_SYSCLK_SOURCE() == RCC_CFGR_SWS_PLL) && ((RCC->PLLCFGR & RCC_PLLCFGR_PLLSRC) == RCC_PLLCFGR_PLLSRC_HSI)) ||\
 8001acc:	4b4d      	ldr	r3, [pc, #308]	; (8001c04 <HAL_RCC_OscConfig+0x270>)
 8001ace:	689b      	ldr	r3, [r3, #8]
 8001ad0:	f003 030c 	and.w	r3, r3, #12
    if((__HAL_RCC_GET_SYSCLK_SOURCE() == RCC_CFGR_SWS_HSI)                                                                     ||\
 8001ad4:	2b08      	cmp	r3, #8
 8001ad6:	d105      	bne.n	8001ae4 <HAL_RCC_OscConfig+0x150>
      ((__HAL_RCC_GET_SYSCLK_SOURCE() == RCC_CFGR_SWS_PLL) && ((RCC->PLLCFGR & RCC_PLLCFGR_PLLSRC) == RCC_PLLCFGR_PLLSRC_HSI)) ||\
 8001ad8:	4b4a      	ldr	r3, [pc, #296]	; (8001c04 <HAL_RCC_OscConfig+0x270>)
 8001ada:	685b      	ldr	r3, [r3, #4]
 8001adc:	f403 0380 	and.w	r3, r3, #4194304	; 0x400000
 8001ae0:	2b00      	cmp	r3, #0
 8001ae2:	d00b      	beq.n	8001afc <HAL_RCC_OscConfig+0x168>
      ((__HAL_RCC_GET_SYSCLK_SOURCE() == RCC_CFGR_SWS_PLLR) && ((RCC->PLLCFGR & RCC_PLLCFGR_PLLSRC) == RCC_PLLCFGR_PLLSRC_HSI)))
 8001ae4:	4b47      	ldr	r3, [pc, #284]	; (8001c04 <HAL_RCC_OscConfig+0x270>)
 8001ae6:	689b      	ldr	r3, [r3, #8]
 8001ae8:	f003 030c 	and.w	r3, r3, #12
      ((__HAL_RCC_GET_SYSCLK_SOURCE() == RCC_CFGR_SWS_PLL) && ((RCC->PLLCFGR & RCC_PLLCFGR_PLLSRC) == RCC_PLLCFGR_PLLSRC_HSI)) ||\
 8001aec:	2b0c      	cmp	r3, #12
 8001aee:	d11c      	bne.n	8001b2a <HAL_RCC_OscConfig+0x196>
      ((__HAL_RCC_GET_SYSCLK_SOURCE() == RCC_CFGR_SWS_PLLR) && ((RCC->PLLCFGR & RCC_PLLCFGR_PLLSRC) == RCC_PLLCFGR_PLLSRC_HSI)))
 8001af0:	4b44      	ldr	r3, [pc, #272]	; (8001c04 <HAL_RCC_OscConfig+0x270>)
 8001af2:	685b      	ldr	r3, [r3, #4]
 8001af4:	f403 0380 	and.w	r3, r3, #4194304	; 0x400000
 8001af8:	2b00      	cmp	r3, #0
 8001afa:	d116      	bne.n	8001b2a <HAL_RCC_OscConfig+0x196>
    if((__HAL_RCC_GET_SYSCLK_SOURCE() == RCC_CFGR_SWS_HSI)                                                                     ||\
      ((__HAL_RCC_GET_SYSCLK_SOURCE() == RCC_CFGR_SWS_PLL) && ((RCC->PLLCFGR & RCC_PLLCFGR_PLLSRC) == RCC_PLLCFGR_PLLSRC_HSI)))
#endif /* STM32F446xx */
    {
      /* When HSI is used as system clock it will not disabled */
      if((__HAL_RCC_GET_FLAG(RCC_FLAG_HSIRDY) != RESET) && (RCC_OscInitStruct->HSIState != RCC_HSI_ON))
 8001afc:	4b41      	ldr	r3, [pc, #260]	; (8001c04 <HAL_RCC_OscConfig+0x270>)
 8001afe:	681b      	ldr	r3, [r3, #0]
 8001b00:	f003 0302 	and.w	r3, r3, #2
 8001b04:	2b00      	cmp	r3, #0
 8001b06:	d005      	beq.n	8001b14 <HAL_RCC_OscConfig+0x180>
 8001b08:	687b      	ldr	r3, [r7, #4]
 8001b0a:	68db      	ldr	r3, [r3, #12]
 8001b0c:	2b01      	cmp	r3, #1
 8001b0e:	d001      	beq.n	8001b14 <HAL_RCC_OscConfig+0x180>
      {
        return HAL_ERROR;
 8001b10:	2301      	movs	r3, #1
 8001b12:	e18f      	b.n	8001e34 <HAL_RCC_OscConfig+0x4a0>
      }
      /* Otherwise, just the calibration is allowed */
      else
      {
        /* Adjusts the Internal High Speed oscillator (HSI) calibration value.*/
        __HAL_RCC_HSI_CALIBRATIONVALUE_ADJUST(RCC_OscInitStruct->HSICalibrationValue);
 8001b14:	4b3b      	ldr	r3, [pc, #236]	; (8001c04 <HAL_RCC_OscConfig+0x270>)
 8001b16:	681b      	ldr	r3, [r3, #0]
 8001b18:	f023 02f8 	bic.w	r2, r3, #248	; 0xf8
 8001b1c:	687b      	ldr	r3, [r7, #4]
 8001b1e:	691b      	ldr	r3, [r3, #16]
 8001b20:	00db      	lsls	r3, r3, #3
 8001b22:	4938      	ldr	r1, [pc, #224]	; (8001c04 <HAL_RCC_OscConfig+0x270>)
 8001b24:	4313      	orrs	r3, r2
 8001b26:	600b      	str	r3, [r1, #0]
      if((__HAL_RCC_GET_FLAG(RCC_FLAG_HSIRDY) != RESET) && (RCC_OscInitStruct->HSIState != RCC_HSI_ON))
 8001b28:	e03a      	b.n	8001ba0 <HAL_RCC_OscConfig+0x20c>
      }
    }
    else
    {
      /* Check the HSI State */
      if((RCC_OscInitStruct->HSIState)!= RCC_HSI_OFF)
 8001b2a:	687b      	ldr	r3, [r7, #4]
 8001b2c:	68db      	ldr	r3, [r3, #12]
 8001b2e:	2b00      	cmp	r3, #0
 8001b30:	d020      	beq.n	8001b74 <HAL_RCC_OscConfig+0x1e0>
      {
        /* Enable the Internal High Speed oscillator (HSI). */
        __HAL_RCC_HSI_ENABLE();
 8001b32:	4b35      	ldr	r3, [pc, #212]	; (8001c08 <HAL_RCC_OscConfig+0x274>)
 8001b34:	2201      	movs	r2, #1
 8001b36:	601a      	str	r2, [r3, #0]

        /* Get Start Tick*/
        tickstart = HAL_GetTick();
 8001b38:	f7ff fa08 	bl	8000f4c <HAL_GetTick>
 8001b3c:	6138      	str	r0, [r7, #16]

        /* Wait till HSI is ready */
        while(__HAL_RCC_GET_FLAG(RCC_FLAG_HSIRDY) == RESET)
 8001b3e:	e008      	b.n	8001b52 <HAL_RCC_OscConfig+0x1be>
        {
          if((HAL_GetTick() - tickstart ) > HSI_TIMEOUT_VALUE)
 8001b40:	f7ff fa04 	bl	8000f4c <HAL_GetTick>
 8001b44:	4602      	mov	r2, r0
 8001b46:	693b      	ldr	r3, [r7, #16]
 8001b48:	1ad3      	subs	r3, r2, r3
 8001b4a:	2b02      	cmp	r3, #2
 8001b4c:	d901      	bls.n	8001b52 <HAL_RCC_OscConfig+0x1be>
          {
            return HAL_TIMEOUT;
 8001b4e:	2303      	movs	r3, #3
 8001b50:	e170      	b.n	8001e34 <HAL_RCC_OscConfig+0x4a0>
        while(__HAL_RCC_GET_FLAG(RCC_FLAG_HSIRDY) == RESET)
 8001b52:	4b2c      	ldr	r3, [pc, #176]	; (8001c04 <HAL_RCC_OscConfig+0x270>)
 8001b54:	681b      	ldr	r3, [r3, #0]
 8001b56:	f003 0302 	and.w	r3, r3, #2
 8001b5a:	2b00      	cmp	r3, #0
 8001b5c:	d0f0      	beq.n	8001b40 <HAL_RCC_OscConfig+0x1ac>
          }
        }

        /* Adjusts the Internal High Speed oscillator (HSI) calibration value.*/
        __HAL_RCC_HSI_CALIBRATIONVALUE_ADJUST(RCC_OscInitStruct->HSICalibrationValue);
 8001b5e:	4b29      	ldr	r3, [pc, #164]	; (8001c04 <HAL_RCC_OscConfig+0x270>)
 8001b60:	681b      	ldr	r3, [r3, #0]
 8001b62:	f023 02f8 	bic.w	r2, r3, #248	; 0xf8
 8001b66:	687b      	ldr	r3, [r7, #4]
 8001b68:	691b      	ldr	r3, [r3, #16]
 8001b6a:	00db      	lsls	r3, r3, #3
 8001b6c:	4925      	ldr	r1, [pc, #148]	; (8001c04 <HAL_RCC_OscConfig+0x270>)
 8001b6e:	4313      	orrs	r3, r2
 8001b70:	600b      	str	r3, [r1, #0]
 8001b72:	e015      	b.n	8001ba0 <HAL_RCC_OscConfig+0x20c>
      }
      else
      {
        /* Disable the Internal High Speed oscillator (HSI). */
        __HAL_RCC_HSI_DISABLE();
 8001b74:	4b24      	ldr	r3, [pc, #144]	; (8001c08 <HAL_RCC_OscConfig+0x274>)
 8001b76:	2200      	movs	r2, #0
 8001b78:	601a      	str	r2, [r3, #0]

        /* Get Start Tick*/
        tickstart = HAL_GetTick();
 8001b7a:	f7ff f9e7 	bl	8000f4c <HAL_GetTick>
 8001b7e:	6138      	str	r0, [r7, #16]

        /* Wait till HSI is ready */
        while(__HAL_RCC_GET_FLAG(RCC_FLAG_HSIRDY) != RESET)
 8001b80:	e008      	b.n	8001b94 <HAL_RCC_OscConfig+0x200>
        {
          if((HAL_GetTick() - tickstart ) > HSI_TIMEOUT_VALUE)
 8001b82:	f7ff f9e3 	bl	8000f4c <HAL_GetTick>
 8001b86:	4602      	mov	r2, r0
 8001b88:	693b      	ldr	r3, [r7, #16]
 8001b8a:	1ad3      	subs	r3, r2, r3
 8001b8c:	2b02      	cmp	r3, #2
 8001b8e:	d901      	bls.n	8001b94 <HAL_RCC_OscConfig+0x200>
          {
            return HAL_TIMEOUT;
 8001b90:	2303      	movs	r3, #3
 8001b92:	e14f      	b.n	8001e34 <HAL_RCC_OscConfig+0x4a0>
        while(__HAL_RCC_GET_FLAG(RCC_FLAG_HSIRDY) != RESET)
 8001b94:	4b1b      	ldr	r3, [pc, #108]	; (8001c04 <HAL_RCC_OscConfig+0x270>)
 8001b96:	681b      	ldr	r3, [r3, #0]
 8001b98:	f003 0302 	and.w	r3, r3, #2
 8001b9c:	2b00      	cmp	r3, #0
 8001b9e:	d1f0      	bne.n	8001b82 <HAL_RCC_OscConfig+0x1ee>
        }
      }
    }
  }
  /*------------------------------ LSI Configuration -------------------------*/
  if(((RCC_OscInitStruct->OscillatorType) & RCC_OSCILLATORTYPE_LSI) == RCC_OSCILLATORTYPE_LSI)
 8001ba0:	687b      	ldr	r3, [r7, #4]
 8001ba2:	681b      	ldr	r3, [r3, #0]
 8001ba4:	f003 0308 	and.w	r3, r3, #8
 8001ba8:	2b00      	cmp	r3, #0
 8001baa:	d037      	beq.n	8001c1c <HAL_RCC_OscConfig+0x288>
  {
    /* Check the parameters */
    assert_param(IS_RCC_LSI(RCC_OscInitStruct->LSIState));

    /* Check the LSI State */
    if((RCC_OscInitStruct->LSIState)!= RCC_LSI_OFF)
 8001bac:	687b      	ldr	r3, [r7, #4]
 8001bae:	695b      	ldr	r3, [r3, #20]
 8001bb0:	2b00      	cmp	r3, #0
 8001bb2:	d016      	beq.n	8001be2 <HAL_RCC_OscConfig+0x24e>
    {
      /* Enable the Internal Low Speed oscillator (LSI). */
      __HAL_RCC_LSI_ENABLE();
 8001bb4:	4b15      	ldr	r3, [pc, #84]	; (8001c0c <HAL_RCC_OscConfig+0x278>)
 8001bb6:	2201      	movs	r2, #1
 8001bb8:	601a      	str	r2, [r3, #0]

      /* Get Start Tick*/
      tickstart = HAL_GetTick();
 8001bba:	f7ff f9c7 	bl	8000f4c <HAL_GetTick>
 8001bbe:	6138      	str	r0, [r7, #16]

      /* Wait till LSI is ready */
      while(__HAL_RCC_GET_FLAG(RCC_FLAG_LSIRDY) == RESET)
 8001bc0:	e008      	b.n	8001bd4 <HAL_RCC_OscConfig+0x240>
      {
        if((HAL_GetTick() - tickstart ) > LSI_TIMEOUT_VALUE)
 8001bc2:	f7ff f9c3 	bl	8000f4c <HAL_GetTick>
 8001bc6:	4602      	mov	r2, r0
 8001bc8:	693b      	ldr	r3, [r7, #16]
 8001bca:	1ad3      	subs	r3, r2, r3
 8001bcc:	2b02      	cmp	r3, #2
 8001bce:	d901      	bls.n	8001bd4 <HAL_RCC_OscConfig+0x240>
        {
          return HAL_TIMEOUT;
 8001bd0:	2303      	movs	r3, #3
 8001bd2:	e12f      	b.n	8001e34 <HAL_RCC_OscConfig+0x4a0>
      while(__HAL_RCC_GET_FLAG(RCC_FLAG_LSIRDY) == RESET)
 8001bd4:	4b0b      	ldr	r3, [pc, #44]	; (8001c04 <HAL_RCC_OscConfig+0x270>)
 8001bd6:	6f5b      	ldr	r3, [r3, #116]	; 0x74
 8001bd8:	f003 0302 	and.w	r3, r3, #2
 8001bdc:	2b00      	cmp	r3, #0
 8001bde:	d0f0      	beq.n	8001bc2 <HAL_RCC_OscConfig+0x22e>
 8001be0:	e01c      	b.n	8001c1c <HAL_RCC_OscConfig+0x288>
      }
    }
    else
    {
      /* Disable the Internal Low Speed oscillator (LSI). */
      __HAL_RCC_LSI_DISABLE();
 8001be2:	4b0a      	ldr	r3, [pc, #40]	; (8001c0c <HAL_RCC_OscConfig+0x278>)
 8001be4:	2200      	movs	r2, #0
 8001be6:	601a      	str	r2, [r3, #0]

      /* Get Start Tick*/
      tickstart = HAL_GetTick();
 8001be8:	f7ff f9b0 	bl	8000f4c <HAL_GetTick>
 8001bec:	6138      	str	r0, [r7, #16]

      /* Wait till LSI is ready */
      while(__HAL_RCC_GET_FLAG(RCC_FLAG_LSIRDY) != RESET)
 8001bee:	e00f      	b.n	8001c10 <HAL_RCC_OscConfig+0x27c>
      {
        if((HAL_GetTick() - tickstart ) > LSI_TIMEOUT_VALUE)
 8001bf0:	f7ff f9ac 	bl	8000f4c <HAL_GetTick>
 8001bf4:	4602      	mov	r2, r0
 8001bf6:	693b      	ldr	r3, [r7, #16]
 8001bf8:	1ad3      	subs	r3, r2, r3
 8001bfa:	2b02      	cmp	r3, #2
 8001bfc:	d908      	bls.n	8001c10 <HAL_RCC_OscConfig+0x27c>
        {
          return HAL_TIMEOUT;
 8001bfe:	2303      	movs	r3, #3
 8001c00:	e118      	b.n	8001e34 <HAL_RCC_OscConfig+0x4a0>
 8001c02:	bf00      	nop
 8001c04:	40023800 	.word	0x40023800
 8001c08:	42470000 	.word	0x42470000
 8001c0c:	42470e80 	.word	0x42470e80
      while(__HAL_RCC_GET_FLAG(RCC_FLAG_LSIRDY) != RESET)
 8001c10:	4b8a      	ldr	r3, [pc, #552]	; (8001e3c <HAL_RCC_OscConfig+0x4a8>)
 8001c12:	6f5b      	ldr	r3, [r3, #116]	; 0x74
 8001c14:	f003 0302 	and.w	r3, r3, #2
 8001c18:	2b00      	cmp	r3, #0
 8001c1a:	d1e9      	bne.n	8001bf0 <HAL_RCC_OscConfig+0x25c>
        }
      }
    }
  }
  /*------------------------------ LSE Configuration -------------------------*/
  if(((RCC_OscInitStruct->OscillatorType) & RCC_OSCILLATORTYPE_LSE) == RCC_OSCILLATORTYPE_LSE)
 8001c1c:	687b      	ldr	r3, [r7, #4]
 8001c1e:	681b      	ldr	r3, [r3, #0]
 8001c20:	f003 0304 	and.w	r3, r3, #4
 8001c24:	2b00      	cmp	r3, #0
 8001c26:	f000 8097 	beq.w	8001d58 <HAL_RCC_OscConfig+0x3c4>
  {
    FlagStatus       pwrclkchanged = RESET;
 8001c2a:	2300      	movs	r3, #0
 8001c2c:	75fb      	strb	r3, [r7, #23]
    /* Check the parameters */
    assert_param(IS_RCC_LSE(RCC_OscInitStruct->LSEState));

    /* Update LSE configuration in Backup Domain control register    */
    /* Requires to enable write access to Backup Domain of necessary */
    if(__HAL_RCC_PWR_IS_CLK_DISABLED())
 8001c2e:	4b83      	ldr	r3, [pc, #524]	; (8001e3c <HAL_RCC_OscConfig+0x4a8>)
 8001c30:	6c1b      	ldr	r3, [r3, #64]	; 0x40
 8001c32:	f003 5380 	and.w	r3, r3, #268435456	; 0x10000000
 8001c36:	2b00      	cmp	r3, #0
 8001c38:	d10f      	bne.n	8001c5a <HAL_RCC_OscConfig+0x2c6>
    {
      __HAL_RCC_PWR_CLK_ENABLE();
 8001c3a:	2300      	movs	r3, #0
 8001c3c:	60fb      	str	r3, [r7, #12]
 8001c3e:	4b7f      	ldr	r3, [pc, #508]	; (8001e3c <HAL_RCC_OscConfig+0x4a8>)
 8001c40:	6c1b      	ldr	r3, [r3, #64]	; 0x40
 8001c42:	4a7e      	ldr	r2, [pc, #504]	; (8001e3c <HAL_RCC_OscConfig+0x4a8>)
 8001c44:	f043 5380 	orr.w	r3, r3, #268435456	; 0x10000000
 8001c48:	6413      	str	r3, [r2, #64]	; 0x40
 8001c4a:	4b7c      	ldr	r3, [pc, #496]	; (8001e3c <HAL_RCC_OscConfig+0x4a8>)
 8001c4c:	6c1b      	ldr	r3, [r3, #64]	; 0x40
 8001c4e:	f003 5380 	and.w	r3, r3, #268435456	; 0x10000000
 8001c52:	60fb      	str	r3, [r7, #12]
 8001c54:	68fb      	ldr	r3, [r7, #12]
      pwrclkchanged = SET;
 8001c56:	2301      	movs	r3, #1
 8001c58:	75fb      	strb	r3, [r7, #23]
    }

    if(HAL_IS_BIT_CLR(PWR->CR, PWR_CR_DBP))
 8001c5a:	4b79      	ldr	r3, [pc, #484]	; (8001e40 <HAL_RCC_OscConfig+0x4ac>)
 8001c5c:	681b      	ldr	r3, [r3, #0]
 8001c5e:	f403 7380 	and.w	r3, r3, #256	; 0x100
 8001c62:	2b00      	cmp	r3, #0
 8001c64:	d118      	bne.n	8001c98 <HAL_RCC_OscConfig+0x304>
    {
      /* Enable write access to Backup domain */
      SET_BIT(PWR->CR, PWR_CR_DBP);
 8001c66:	4b76      	ldr	r3, [pc, #472]	; (8001e40 <HAL_RCC_OscConfig+0x4ac>)
 8001c68:	681b      	ldr	r3, [r3, #0]
 8001c6a:	4a75      	ldr	r2, [pc, #468]	; (8001e40 <HAL_RCC_OscConfig+0x4ac>)
 8001c6c:	f443 7380 	orr.w	r3, r3, #256	; 0x100
 8001c70:	6013      	str	r3, [r2, #0]

      /* Wait for Backup domain Write protection disable */
      tickstart = HAL_GetTick();
 8001c72:	f7ff f96b 	bl	8000f4c <HAL_GetTick>
 8001c76:	6138      	str	r0, [r7, #16]

      while(HAL_IS_BIT_CLR(PWR->CR, PWR_CR_DBP))
 8001c78:	e008      	b.n	8001c8c <HAL_RCC_OscConfig+0x2f8>
      {
        if((HAL_GetTick() - tickstart) > RCC_DBP_TIMEOUT_VALUE)
 8001c7a:	f7ff f967 	bl	8000f4c <HAL_GetTick>
 8001c7e:	4602      	mov	r2, r0
 8001c80:	693b      	ldr	r3, [r7, #16]
 8001c82:	1ad3      	subs	r3, r2, r3
 8001c84:	2b02      	cmp	r3, #2
 8001c86:	d901      	bls.n	8001c8c <HAL_RCC_OscConfig+0x2f8>
        {
          return HAL_TIMEOUT;
 8001c88:	2303      	movs	r3, #3
 8001c8a:	e0d3      	b.n	8001e34 <HAL_RCC_OscConfig+0x4a0>
      while(HAL_IS_BIT_CLR(PWR->CR, PWR_CR_DBP))
 8001c8c:	4b6c      	ldr	r3, [pc, #432]	; (8001e40 <HAL_RCC_OscConfig+0x4ac>)
 8001c8e:	681b      	ldr	r3, [r3, #0]
 8001c90:	f403 7380 	and.w	r3, r3, #256	; 0x100
 8001c94:	2b00      	cmp	r3, #0
 8001c96:	d0f0      	beq.n	8001c7a <HAL_RCC_OscConfig+0x2e6>
        }
      }
    }

    /* Set the new LSE configuration -----------------------------------------*/
    __HAL_RCC_LSE_CONFIG(RCC_OscInitStruct->LSEState);
 8001c98:	687b      	ldr	r3, [r7, #4]
 8001c9a:	689b      	ldr	r3, [r3, #8]
 8001c9c:	2b01      	cmp	r3, #1
 8001c9e:	d106      	bne.n	8001cae <HAL_RCC_OscConfig+0x31a>
 8001ca0:	4b66      	ldr	r3, [pc, #408]	; (8001e3c <HAL_RCC_OscConfig+0x4a8>)
 8001ca2:	6f1b      	ldr	r3, [r3, #112]	; 0x70
 8001ca4:	4a65      	ldr	r2, [pc, #404]	; (8001e3c <HAL_RCC_OscConfig+0x4a8>)
 8001ca6:	f043 0301 	orr.w	r3, r3, #1
 8001caa:	6713      	str	r3, [r2, #112]	; 0x70
 8001cac:	e01c      	b.n	8001ce8 <HAL_RCC_OscConfig+0x354>
 8001cae:	687b      	ldr	r3, [r7, #4]
 8001cb0:	689b      	ldr	r3, [r3, #8]
 8001cb2:	2b05      	cmp	r3, #5
 8001cb4:	d10c      	bne.n	8001cd0 <HAL_RCC_OscConfig+0x33c>
 8001cb6:	4b61      	ldr	r3, [pc, #388]	; (8001e3c <HAL_RCC_OscConfig+0x4a8>)
 8001cb8:	6f1b      	ldr	r3, [r3, #112]	; 0x70
 8001cba:	4a60      	ldr	r2, [pc, #384]	; (8001e3c <HAL_RCC_OscConfig+0x4a8>)
 8001cbc:	f043 0304 	orr.w	r3, r3, #4
 8001cc0:	6713      	str	r3, [r2, #112]	; 0x70
 8001cc2:	4b5e      	ldr	r3, [pc, #376]	; (8001e3c <HAL_RCC_OscConfig+0x4a8>)
 8001cc4:	6f1b      	ldr	r3, [r3, #112]	; 0x70
 8001cc6:	4a5d      	ldr	r2, [pc, #372]	; (8001e3c <HAL_RCC_OscConfig+0x4a8>)
 8001cc8:	f043 0301 	orr.w	r3, r3, #1
 8001ccc:	6713      	str	r3, [r2, #112]	; 0x70
 8001cce:	e00b      	b.n	8001ce8 <HAL_RCC_OscConfig+0x354>
 8001cd0:	4b5a      	ldr	r3, [pc, #360]	; (8001e3c <HAL_RCC_OscConfig+0x4a8>)
 8001cd2:	6f1b      	ldr	r3, [r3, #112]	; 0x70
 8001cd4:	4a59      	ldr	r2, [pc, #356]	; (8001e3c <HAL_RCC_OscConfig+0x4a8>)
 8001cd6:	f023 0301 	bic.w	r3, r3, #1
 8001cda:	6713      	str	r3, [r2, #112]	; 0x70
 8001cdc:	4b57      	ldr	r3, [pc, #348]	; (8001e3c <HAL_RCC_OscConfig+0x4a8>)
 8001cde:	6f1b      	ldr	r3, [r3, #112]	; 0x70
 8001ce0:	4a56      	ldr	r2, [pc, #344]	; (8001e3c <HAL_RCC_OscConfig+0x4a8>)
 8001ce2:	f023 0304 	bic.w	r3, r3, #4
 8001ce6:	6713      	str	r3, [r2, #112]	; 0x70
    /* Check the LSE State */
    if((RCC_OscInitStruct->LSEState) != RCC_LSE_OFF)
 8001ce8:	687b      	ldr	r3, [r7, #4]
 8001cea:	689b      	ldr	r3, [r3, #8]
 8001cec:	2b00      	cmp	r3, #0
 8001cee:	d015      	beq.n	8001d1c <HAL_RCC_OscConfig+0x388>
    {
      /* Get Start Tick*/
      tickstart = HAL_GetTick();
 8001cf0:	f7ff f92c 	bl	8000f4c <HAL_GetTick>
 8001cf4:	6138      	str	r0, [r7, #16]

      /* Wait till LSE is ready */
      while(__HAL_RCC_GET_FLAG(RCC_FLAG_LSERDY) == RESET)
 8001cf6:	e00a      	b.n	8001d0e <HAL_RCC_OscConfig+0x37a>
      {
        if((HAL_GetTick() - tickstart ) > RCC_LSE_TIMEOUT_VALUE)
 8001cf8:	f7ff f928 	bl	8000f4c <HAL_GetTick>
 8001cfc:	4602      	mov	r2, r0
 8001cfe:	693b      	ldr	r3, [r7, #16]
 8001d00:	1ad3      	subs	r3, r2, r3
 8001d02:	f241 3288 	movw	r2, #5000	; 0x1388
 8001d06:	4293      	cmp	r3, r2
 8001d08:	d901      	bls.n	8001d0e <HAL_RCC_OscConfig+0x37a>
        {
          return HAL_TIMEOUT;
 8001d0a:	2303      	movs	r3, #3
 8001d0c:	e092      	b.n	8001e34 <HAL_RCC_OscConfig+0x4a0>
      while(__HAL_RCC_GET_FLAG(RCC_FLAG_LSERDY) == RESET)
 8001d0e:	4b4b      	ldr	r3, [pc, #300]	; (8001e3c <HAL_RCC_OscConfig+0x4a8>)
 8001d10:	6f1b      	ldr	r3, [r3, #112]	; 0x70
 8001d12:	f003 0302 	and.w	r3, r3, #2
 8001d16:	2b00      	cmp	r3, #0
 8001d18:	d0ee      	beq.n	8001cf8 <HAL_RCC_OscConfig+0x364>
 8001d1a:	e014      	b.n	8001d46 <HAL_RCC_OscConfig+0x3b2>
      }
    }
    else
    {
      /* Get Start Tick*/
      tickstart = HAL_GetTick();
 8001d1c:	f7ff f916 	bl	8000f4c <HAL_GetTick>
 8001d20:	6138      	str	r0, [r7, #16]

      /* Wait till LSE is ready */
      while(__HAL_RCC_GET_FLAG(RCC_FLAG_LSERDY) != RESET)
 8001d22:	e00a      	b.n	8001d3a <HAL_RCC_OscConfig+0x3a6>
      {
        if((HAL_GetTick() - tickstart ) > RCC_LSE_TIMEOUT_VALUE)
 8001d24:	f7ff f912 	bl	8000f4c <HAL_GetTick>
 8001d28:	4602      	mov	r2, r0
 8001d2a:	693b      	ldr	r3, [r7, #16]
 8001d2c:	1ad3      	subs	r3, r2, r3
 8001d2e:	f241 3288 	movw	r2, #5000	; 0x1388
 8001d32:	4293      	cmp	r3, r2
 8001d34:	d901      	bls.n	8001d3a <HAL_RCC_OscConfig+0x3a6>
        {
          return HAL_TIMEOUT;
 8001d36:	2303      	movs	r3, #3
 8001d38:	e07c      	b.n	8001e34 <HAL_RCC_OscConfig+0x4a0>
      while(__HAL_RCC_GET_FLAG(RCC_FLAG_LSERDY) != RESET)
 8001d3a:	4b40      	ldr	r3, [pc, #256]	; (8001e3c <HAL_RCC_OscConfig+0x4a8>)
 8001d3c:	6f1b      	ldr	r3, [r3, #112]	; 0x70
 8001d3e:	f003 0302 	and.w	r3, r3, #2
 8001d42:	2b00      	cmp	r3, #0
 8001d44:	d1ee      	bne.n	8001d24 <HAL_RCC_OscConfig+0x390>
        }
      }
    }

    /* Restore clock configuration if changed */
    if(pwrclkchanged == SET)
 8001d46:	7dfb      	ldrb	r3, [r7, #23]
 8001d48:	2b01      	cmp	r3, #1
 8001d4a:	d105      	bne.n	8001d58 <HAL_RCC_OscConfig+0x3c4>
    {
      __HAL_RCC_PWR_CLK_DISABLE();
 8001d4c:	4b3b      	ldr	r3, [pc, #236]	; (8001e3c <HAL_RCC_OscConfig+0x4a8>)
 8001d4e:	6c1b      	ldr	r3, [r3, #64]	; 0x40
 8001d50:	4a3a      	ldr	r2, [pc, #232]	; (8001e3c <HAL_RCC_OscConfig+0x4a8>)
 8001d52:	f023 5380 	bic.w	r3, r3, #268435456	; 0x10000000
 8001d56:	6413      	str	r3, [r2, #64]	; 0x40
    }
  }
  /*-------------------------------- PLL Configuration -----------------------*/
  /* Check the parameters */
  assert_param(IS_RCC_PLL(RCC_OscInitStruct->PLL.PLLState));
  if ((RCC_OscInitStruct->PLL.PLLState) != RCC_PLL_NONE)
 8001d58:	687b      	ldr	r3, [r7, #4]
 8001d5a:	699b      	ldr	r3, [r3, #24]
 8001d5c:	2b00      	cmp	r3, #0
 8001d5e:	d068      	beq.n	8001e32 <HAL_RCC_OscConfig+0x49e>
  {
    /* Check if the PLL is used as system clock or not */
    if(__HAL_RCC_GET_SYSCLK_SOURCE() != RCC_CFGR_SWS_PLL)
 8001d60:	4b36      	ldr	r3, [pc, #216]	; (8001e3c <HAL_RCC_OscConfig+0x4a8>)
 8001d62:	689b      	ldr	r3, [r3, #8]
 8001d64:	f003 030c 	and.w	r3, r3, #12
 8001d68:	2b08      	cmp	r3, #8
 8001d6a:	d060      	beq.n	8001e2e <HAL_RCC_OscConfig+0x49a>
    {
      if((RCC_OscInitStruct->PLL.PLLState) == RCC_PLL_ON)
 8001d6c:	687b      	ldr	r3, [r7, #4]
 8001d6e:	699b      	ldr	r3, [r3, #24]
 8001d70:	2b02      	cmp	r3, #2
 8001d72:	d145      	bne.n	8001e00 <HAL_RCC_OscConfig+0x46c>
        assert_param(IS_RCC_PLLP_VALUE(RCC_OscInitStruct->PLL.PLLP));
        assert_param(IS_RCC_PLLQ_VALUE(RCC_OscInitStruct->PLL.PLLQ));
        assert_param(IS_RCC_PLLR_VALUE(RCC_OscInitStruct->PLL.PLLR));

        /* Disable the main PLL. */
        __HAL_RCC_PLL_DISABLE();
 8001d74:	4b33      	ldr	r3, [pc, #204]	; (8001e44 <HAL_RCC_OscConfig+0x4b0>)
 8001d76:	2200      	movs	r2, #0
 8001d78:	601a      	str	r2, [r3, #0]

        /* Get Start Tick*/
        tickstart = HAL_GetTick();
 8001d7a:	f7ff f8e7 	bl	8000f4c <HAL_GetTick>
 8001d7e:	6138      	str	r0, [r7, #16]

        /* Wait till PLL is ready */
        while(__HAL_RCC_GET_FLAG(RCC_FLAG_PLLRDY) != RESET)
 8001d80:	e008      	b.n	8001d94 <HAL_RCC_OscConfig+0x400>
        {
          if((HAL_GetTick() - tickstart ) > PLL_TIMEOUT_VALUE)
 8001d82:	f7ff f8e3 	bl	8000f4c <HAL_GetTick>
 8001d86:	4602      	mov	r2, r0
 8001d88:	693b      	ldr	r3, [r7, #16]
 8001d8a:	1ad3      	subs	r3, r2, r3
 8001d8c:	2b02      	cmp	r3, #2
 8001d8e:	d901      	bls.n	8001d94 <HAL_RCC_OscConfig+0x400>
          {
            return HAL_TIMEOUT;
 8001d90:	2303      	movs	r3, #3
 8001d92:	e04f      	b.n	8001e34 <HAL_RCC_OscConfig+0x4a0>
        while(__HAL_RCC_GET_FLAG(RCC_FLAG_PLLRDY) != RESET)
 8001d94:	4b29      	ldr	r3, [pc, #164]	; (8001e3c <HAL_RCC_OscConfig+0x4a8>)
 8001d96:	681b      	ldr	r3, [r3, #0]
 8001d98:	f003 7300 	and.w	r3, r3, #33554432	; 0x2000000
 8001d9c:	2b00      	cmp	r3, #0
 8001d9e:	d1f0      	bne.n	8001d82 <HAL_RCC_OscConfig+0x3ee>
          }
        }

        /* Configure the main PLL clock source, multiplication and division factors. */
        __HAL_RCC_PLL_CONFIG(RCC_OscInitStruct->PLL.PLLSource,
 8001da0:	687b      	ldr	r3, [r7, #4]
 8001da2:	69da      	ldr	r2, [r3, #28]
 8001da4:	687b      	ldr	r3, [r7, #4]
 8001da6:	6a1b      	ldr	r3, [r3, #32]
 8001da8:	431a      	orrs	r2, r3
 8001daa:	687b      	ldr	r3, [r7, #4]
 8001dac:	6a5b      	ldr	r3, [r3, #36]	; 0x24
 8001dae:	019b      	lsls	r3, r3, #6
 8001db0:	431a      	orrs	r2, r3
 8001db2:	687b      	ldr	r3, [r7, #4]
 8001db4:	6a9b      	ldr	r3, [r3, #40]	; 0x28
 8001db6:	085b      	lsrs	r3, r3, #1
 8001db8:	3b01      	subs	r3, #1
 8001dba:	041b      	lsls	r3, r3, #16
 8001dbc:	431a      	orrs	r2, r3
 8001dbe:	687b      	ldr	r3, [r7, #4]
 8001dc0:	6adb      	ldr	r3, [r3, #44]	; 0x2c
 8001dc2:	061b      	lsls	r3, r3, #24
 8001dc4:	431a      	orrs	r2, r3
 8001dc6:	687b      	ldr	r3, [r7, #4]
 8001dc8:	6b1b      	ldr	r3, [r3, #48]	; 0x30
 8001dca:	071b      	lsls	r3, r3, #28
 8001dcc:	491b      	ldr	r1, [pc, #108]	; (8001e3c <HAL_RCC_OscConfig+0x4a8>)
 8001dce:	4313      	orrs	r3, r2
 8001dd0:	604b      	str	r3, [r1, #4]
                             RCC_OscInitStruct->PLL.PLLP,
                             RCC_OscInitStruct->PLL.PLLQ,
                             RCC_OscInitStruct->PLL.PLLR);

        /* Enable the main PLL. */
        __HAL_RCC_PLL_ENABLE();
 8001dd2:	4b1c      	ldr	r3, [pc, #112]	; (8001e44 <HAL_RCC_OscConfig+0x4b0>)
 8001dd4:	2201      	movs	r2, #1
 8001dd6:	601a      	str	r2, [r3, #0]

        /* Get Start Tick*/
        tickstart = HAL_GetTick();
 8001dd8:	f7ff f8b8 	bl	8000f4c <HAL_GetTick>
 8001ddc:	6138      	str	r0, [r7, #16]

        /* Wait till PLL is ready */
        while(__HAL_RCC_GET_FLAG(RCC_FLAG_PLLRDY) == RESET)
 8001dde:	e008      	b.n	8001df2 <HAL_RCC_OscConfig+0x45e>
        {
          if((HAL_GetTick() - tickstart ) > PLL_TIMEOUT_VALUE)
 8001de0:	f7ff f8b4 	bl	8000f4c <HAL_GetTick>
 8001de4:	4602      	mov	r2, r0
 8001de6:	693b      	ldr	r3, [r7, #16]
 8001de8:	1ad3      	subs	r3, r2, r3
 8001dea:	2b02      	cmp	r3, #2
 8001dec:	d901      	bls.n	8001df2 <HAL_RCC_OscConfig+0x45e>
          {
            return HAL_TIMEOUT;
 8001dee:	2303      	movs	r3, #3
 8001df0:	e020      	b.n	8001e34 <HAL_RCC_OscConfig+0x4a0>
        while(__HAL_RCC_GET_FLAG(RCC_FLAG_PLLRDY) == RESET)
 8001df2:	4b12      	ldr	r3, [pc, #72]	; (8001e3c <HAL_RCC_OscConfig+0x4a8>)
 8001df4:	681b      	ldr	r3, [r3, #0]
 8001df6:	f003 7300 	and.w	r3, r3, #33554432	; 0x2000000
 8001dfa:	2b00      	cmp	r3, #0
 8001dfc:	d0f0      	beq.n	8001de0 <HAL_RCC_OscConfig+0x44c>
 8001dfe:	e018      	b.n	8001e32 <HAL_RCC_OscConfig+0x49e>
        }
      }
      else
      {
        /* Disable the main PLL. */
        __HAL_RCC_PLL_DISABLE();
 8001e00:	4b10      	ldr	r3, [pc, #64]	; (8001e44 <HAL_RCC_OscConfig+0x4b0>)
 8001e02:	2200      	movs	r2, #0
 8001e04:	601a      	str	r2, [r3, #0]

        /* Get Start Tick*/
        tickstart = HAL_GetTick();
 8001e06:	f7ff f8a1 	bl	8000f4c <HAL_GetTick>
 8001e0a:	6138      	str	r0, [r7, #16]

        /* Wait till PLL is ready */
        while(__HAL_RCC_GET_FLAG(RCC_FLAG_PLLRDY) != RESET)
 8001e0c:	e008      	b.n	8001e20 <HAL_RCC_OscConfig+0x48c>
        {
          if((HAL_GetTick() - tickstart ) > PLL_TIMEOUT_VALUE)
 8001e0e:	f7ff f89d 	bl	8000f4c <HAL_GetTick>
 8001e12:	4602      	mov	r2, r0
 8001e14:	693b      	ldr	r3, [r7, #16]
 8001e16:	1ad3      	subs	r3, r2, r3
 8001e18:	2b02      	cmp	r3, #2
 8001e1a:	d901      	bls.n	8001e20 <HAL_RCC_OscConfig+0x48c>
          {
            return HAL_TIMEOUT;
 8001e1c:	2303      	movs	r3, #3
 8001e1e:	e009      	b.n	8001e34 <HAL_RCC_OscConfig+0x4a0>
        while(__HAL_RCC_GET_FLAG(RCC_FLAG_PLLRDY) != RESET)
 8001e20:	4b06      	ldr	r3, [pc, #24]	; (8001e3c <HAL_RCC_OscConfig+0x4a8>)
 8001e22:	681b      	ldr	r3, [r3, #0]
 8001e24:	f003 7300 	and.w	r3, r3, #33554432	; 0x2000000
 8001e28:	2b00      	cmp	r3, #0
 8001e2a:	d1f0      	bne.n	8001e0e <HAL_RCC_OscConfig+0x47a>
 8001e2c:	e001      	b.n	8001e32 <HAL_RCC_OscConfig+0x49e>
        }
      }
    }
    else
    {
      return HAL_ERROR;
 8001e2e:	2301      	movs	r3, #1
 8001e30:	e000      	b.n	8001e34 <HAL_RCC_OscConfig+0x4a0>
    }
  }
  return HAL_OK;
 8001e32:	2300      	movs	r3, #0
}
 8001e34:	4618      	mov	r0, r3
 8001e36:	3718      	adds	r7, #24
 8001e38:	46bd      	mov	sp, r7
 8001e3a:	bd80      	pop	{r7, pc}
 8001e3c:	40023800 	.word	0x40023800
 8001e40:	40007000 	.word	0x40007000
 8001e44:	42470060 	.word	0x42470060

08001e48 <HAL_TIM_Base_Init>:
  *         Ex: call @ref HAL_TIM_Base_DeInit() before HAL_TIM_Base_Init()
  * @param  htim TIM Base handle
  * @retval HAL status
  */
HAL_StatusTypeDef HAL_TIM_Base_Init(TIM_HandleTypeDef *htim)
{
 8001e48:	b580      	push	{r7, lr}
 8001e4a:	b082      	sub	sp, #8
 8001e4c:	af00      	add	r7, sp, #0
 8001e4e:	6078      	str	r0, [r7, #4]
  /* Check the TIM handle allocation */
  if (htim == NULL)
 8001e50:	687b      	ldr	r3, [r7, #4]
 8001e52:	2b00      	cmp	r3, #0
 8001e54:	d101      	bne.n	8001e5a <HAL_TIM_Base_Init+0x12>
  {
    return HAL_ERROR;
 8001e56:	2301      	movs	r3, #1
 8001e58:	e01d      	b.n	8001e96 <HAL_TIM_Base_Init+0x4e>
  assert_param(IS_TIM_INSTANCE(htim->Instance));
  assert_param(IS_TIM_COUNTER_MODE(htim->Init.CounterMode));
  assert_param(IS_TIM_CLOCKDIVISION_DIV(htim->Init.ClockDivision));
  assert_param(IS_TIM_AUTORELOAD_PRELOAD(htim->Init.AutoReloadPreload));

  if (htim->State == HAL_TIM_STATE_RESET)
 8001e5a:	687b      	ldr	r3, [r7, #4]
 8001e5c:	f893 303d 	ldrb.w	r3, [r3, #61]	; 0x3d
 8001e60:	b2db      	uxtb	r3, r3
 8001e62:	2b00      	cmp	r3, #0
 8001e64:	d106      	bne.n	8001e74 <HAL_TIM_Base_Init+0x2c>
  {
    /* Allocate lock resource and initialize it */
    htim->Lock = HAL_UNLOCKED;
 8001e66:	687b      	ldr	r3, [r7, #4]
 8001e68:	2200      	movs	r2, #0
 8001e6a:	f883 203c 	strb.w	r2, [r3, #60]	; 0x3c
    }
    /* Init the low level hardware : GPIO, CLOCK, NVIC */
    htim->Base_MspInitCallback(htim);
#else
    /* Init the low level hardware : GPIO, CLOCK, NVIC */
    HAL_TIM_Base_MspInit(htim);
 8001e6e:	6878      	ldr	r0, [r7, #4]
 8001e70:	f7fe ff76 	bl	8000d60 <HAL_TIM_Base_MspInit>
#endif /* USE_HAL_TIM_REGISTER_CALLBACKS */
  }

  /* Set the TIM state */
  htim->State = HAL_TIM_STATE_BUSY;
 8001e74:	687b      	ldr	r3, [r7, #4]
 8001e76:	2202      	movs	r2, #2
 8001e78:	f883 203d 	strb.w	r2, [r3, #61]	; 0x3d

  /* Set the Time Base configuration */
  TIM_Base_SetConfig(htim->Instance, &htim->Init);
 8001e7c:	687b      	ldr	r3, [r7, #4]
 8001e7e:	681a      	ldr	r2, [r3, #0]
 8001e80:	687b      	ldr	r3, [r7, #4]
 8001e82:	3304      	adds	r3, #4
 8001e84:	4619      	mov	r1, r3
 8001e86:	4610      	mov	r0, r2
 8001e88:	f000 f8e4 	bl	8002054 <TIM_Base_SetConfig>

  /* Initialize the TIM state*/
  htim->State = HAL_TIM_STATE_READY;
 8001e8c:	687b      	ldr	r3, [r7, #4]
 8001e8e:	2201      	movs	r2, #1
 8001e90:	f883 203d 	strb.w	r2, [r3, #61]	; 0x3d

  return HAL_OK;
 8001e94:	2300      	movs	r3, #0
}
 8001e96:	4618      	mov	r0, r3
 8001e98:	3708      	adds	r7, #8
 8001e9a:	46bd      	mov	sp, r7
 8001e9c:	bd80      	pop	{r7, pc}

08001e9e <HAL_TIM_Base_Start>:
  * @brief  Starts the TIM Base generation.
  * @param  htim TIM Base handle
  * @retval HAL status
  */
HAL_StatusTypeDef HAL_TIM_Base_Start(TIM_HandleTypeDef *htim)
{
 8001e9e:	b480      	push	{r7}
 8001ea0:	b085      	sub	sp, #20
 8001ea2:	af00      	add	r7, sp, #0
 8001ea4:	6078      	str	r0, [r7, #4]

  /* Check the parameters */
  assert_param(IS_TIM_INSTANCE(htim->Instance));

  /* Set the TIM state */
  htim->State = HAL_TIM_STATE_BUSY;
 8001ea6:	687b      	ldr	r3, [r7, #4]
 8001ea8:	2202      	movs	r2, #2
 8001eaa:	f883 203d 	strb.w	r2, [r3, #61]	; 0x3d

  /* Enable the Peripheral, except in trigger mode where enable is automatically done with trigger */
  tmpsmcr = htim->Instance->SMCR & TIM_SMCR_SMS;
 8001eae:	687b      	ldr	r3, [r7, #4]
 8001eb0:	681b      	ldr	r3, [r3, #0]
 8001eb2:	689b      	ldr	r3, [r3, #8]
 8001eb4:	f003 0307 	and.w	r3, r3, #7
 8001eb8:	60fb      	str	r3, [r7, #12]
  if (!IS_TIM_SLAVEMODE_TRIGGER_ENABLED(tmpsmcr))
 8001eba:	68fb      	ldr	r3, [r7, #12]
 8001ebc:	2b06      	cmp	r3, #6
 8001ebe:	d007      	beq.n	8001ed0 <HAL_TIM_Base_Start+0x32>
  {
    __HAL_TIM_ENABLE(htim);
 8001ec0:	687b      	ldr	r3, [r7, #4]
 8001ec2:	681b      	ldr	r3, [r3, #0]
 8001ec4:	681a      	ldr	r2, [r3, #0]
 8001ec6:	687b      	ldr	r3, [r7, #4]
 8001ec8:	681b      	ldr	r3, [r3, #0]
 8001eca:	f042 0201 	orr.w	r2, r2, #1
 8001ece:	601a      	str	r2, [r3, #0]
  }

  /* Change the TIM state*/
  htim->State = HAL_TIM_STATE_READY;
 8001ed0:	687b      	ldr	r3, [r7, #4]
 8001ed2:	2201      	movs	r2, #1
 8001ed4:	f883 203d 	strb.w	r2, [r3, #61]	; 0x3d

  /* Return function status */
  return HAL_OK;
 8001ed8:	2300      	movs	r3, #0
}
 8001eda:	4618      	mov	r0, r3
 8001edc:	3714      	adds	r7, #20
 8001ede:	46bd      	mov	sp, r7
 8001ee0:	f85d 7b04 	ldr.w	r7, [sp], #4
 8001ee4:	4770      	bx	lr

08001ee6 <HAL_TIM_ConfigClockSource>:
  * @param  sClockSourceConfig pointer to a TIM_ClockConfigTypeDef structure that
  *         contains the clock source information for the TIM peripheral.
  * @retval HAL status
  */
HAL_StatusTypeDef HAL_TIM_ConfigClockSource(TIM_HandleTypeDef *htim, TIM_ClockConfigTypeDef *sClockSourceConfig)
{
 8001ee6:	b580      	push	{r7, lr}
 8001ee8:	b084      	sub	sp, #16
 8001eea:	af00      	add	r7, sp, #0
 8001eec:	6078      	str	r0, [r7, #4]
 8001eee:	6039      	str	r1, [r7, #0]
  uint32_t tmpsmcr;

  /* Process Locked */
  __HAL_LOCK(htim);
 8001ef0:	687b      	ldr	r3, [r7, #4]
 8001ef2:	f893 303c 	ldrb.w	r3, [r3, #60]	; 0x3c
 8001ef6:	2b01      	cmp	r3, #1
 8001ef8:	d101      	bne.n	8001efe <HAL_TIM_ConfigClockSource+0x18>
 8001efa:	2302      	movs	r3, #2
 8001efc:	e0a6      	b.n	800204c <HAL_TIM_ConfigClockSource+0x166>
 8001efe:	687b      	ldr	r3, [r7, #4]
 8001f00:	2201      	movs	r2, #1
 8001f02:	f883 203c 	strb.w	r2, [r3, #60]	; 0x3c

  htim->State = HAL_TIM_STATE_BUSY;
 8001f06:	687b      	ldr	r3, [r7, #4]
 8001f08:	2202      	movs	r2, #2
 8001f0a:	f883 203d 	strb.w	r2, [r3, #61]	; 0x3d

  /* Check the parameters */
  assert_param(IS_TIM_CLOCKSOURCE(sClockSourceConfig->ClockSource));

  /* Reset the SMS, TS, ECE, ETPS and ETRF bits */
  tmpsmcr = htim->Instance->SMCR;
 8001f0e:	687b      	ldr	r3, [r7, #4]
 8001f10:	681b      	ldr	r3, [r3, #0]
 8001f12:	689b      	ldr	r3, [r3, #8]
 8001f14:	60fb      	str	r3, [r7, #12]
  tmpsmcr &= ~(TIM_SMCR_SMS | TIM_SMCR_TS);
 8001f16:	68fb      	ldr	r3, [r7, #12]
 8001f18:	f023 0377 	bic.w	r3, r3, #119	; 0x77
 8001f1c:	60fb      	str	r3, [r7, #12]
  tmpsmcr &= ~(TIM_SMCR_ETF | TIM_SMCR_ETPS | TIM_SMCR_ECE | TIM_SMCR_ETP);
 8001f1e:	68fb      	ldr	r3, [r7, #12]
 8001f20:	f423 437f 	bic.w	r3, r3, #65280	; 0xff00
 8001f24:	60fb      	str	r3, [r7, #12]
  htim->Instance->SMCR = tmpsmcr;
 8001f26:	687b      	ldr	r3, [r7, #4]
 8001f28:	681b      	ldr	r3, [r3, #0]
 8001f2a:	68fa      	ldr	r2, [r7, #12]
 8001f2c:	609a      	str	r2, [r3, #8]

  switch (sClockSourceConfig->ClockSource)
 8001f2e:	683b      	ldr	r3, [r7, #0]
 8001f30:	681b      	ldr	r3, [r3, #0]
 8001f32:	2b40      	cmp	r3, #64	; 0x40
 8001f34:	d067      	beq.n	8002006 <HAL_TIM_ConfigClockSource+0x120>
 8001f36:	2b40      	cmp	r3, #64	; 0x40
 8001f38:	d80b      	bhi.n	8001f52 <HAL_TIM_ConfigClockSource+0x6c>
 8001f3a:	2b10      	cmp	r3, #16
 8001f3c:	d073      	beq.n	8002026 <HAL_TIM_ConfigClockSource+0x140>
 8001f3e:	2b10      	cmp	r3, #16
 8001f40:	d802      	bhi.n	8001f48 <HAL_TIM_ConfigClockSource+0x62>
 8001f42:	2b00      	cmp	r3, #0
 8001f44:	d06f      	beq.n	8002026 <HAL_TIM_ConfigClockSource+0x140>
      TIM_ITRx_SetConfig(htim->Instance, sClockSourceConfig->ClockSource);
      break;
    }

    default:
      break;
 8001f46:	e078      	b.n	800203a <HAL_TIM_ConfigClockSource+0x154>
  switch (sClockSourceConfig->ClockSource)
 8001f48:	2b20      	cmp	r3, #32
 8001f4a:	d06c      	beq.n	8002026 <HAL_TIM_ConfigClockSource+0x140>
 8001f4c:	2b30      	cmp	r3, #48	; 0x30
 8001f4e:	d06a      	beq.n	8002026 <HAL_TIM_ConfigClockSource+0x140>
      break;
 8001f50:	e073      	b.n	800203a <HAL_TIM_ConfigClockSource+0x154>
  switch (sClockSourceConfig->ClockSource)
 8001f52:	2b70      	cmp	r3, #112	; 0x70
 8001f54:	d00d      	beq.n	8001f72 <HAL_TIM_ConfigClockSource+0x8c>
 8001f56:	2b70      	cmp	r3, #112	; 0x70
 8001f58:	d804      	bhi.n	8001f64 <HAL_TIM_ConfigClockSource+0x7e>
 8001f5a:	2b50      	cmp	r3, #80	; 0x50
 8001f5c:	d033      	beq.n	8001fc6 <HAL_TIM_ConfigClockSource+0xe0>
 8001f5e:	2b60      	cmp	r3, #96	; 0x60
 8001f60:	d041      	beq.n	8001fe6 <HAL_TIM_ConfigClockSource+0x100>
      break;
 8001f62:	e06a      	b.n	800203a <HAL_TIM_ConfigClockSource+0x154>
  switch (sClockSourceConfig->ClockSource)
 8001f64:	f5b3 5f80 	cmp.w	r3, #4096	; 0x1000
 8001f68:	d066      	beq.n	8002038 <HAL_TIM_ConfigClockSource+0x152>
 8001f6a:	f5b3 5f00 	cmp.w	r3, #8192	; 0x2000
 8001f6e:	d017      	beq.n	8001fa0 <HAL_TIM_ConfigClockSource+0xba>
      break;
 8001f70:	e063      	b.n	800203a <HAL_TIM_ConfigClockSource+0x154>
      TIM_ETR_SetConfig(htim->Instance,
 8001f72:	687b      	ldr	r3, [r7, #4]
 8001f74:	6818      	ldr	r0, [r3, #0]
 8001f76:	683b      	ldr	r3, [r7, #0]
 8001f78:	6899      	ldr	r1, [r3, #8]
 8001f7a:	683b      	ldr	r3, [r7, #0]
 8001f7c:	685a      	ldr	r2, [r3, #4]
 8001f7e:	683b      	ldr	r3, [r7, #0]
 8001f80:	68db      	ldr	r3, [r3, #12]
 8001f82:	f000 f981 	bl	8002288 <TIM_ETR_SetConfig>
      tmpsmcr = htim->Instance->SMCR;
 8001f86:	687b      	ldr	r3, [r7, #4]
 8001f88:	681b      	ldr	r3, [r3, #0]
 8001f8a:	689b      	ldr	r3, [r3, #8]
 8001f8c:	60fb      	str	r3, [r7, #12]
      tmpsmcr |= (TIM_SLAVEMODE_EXTERNAL1 | TIM_CLOCKSOURCE_ETRMODE1);
 8001f8e:	68fb      	ldr	r3, [r7, #12]
 8001f90:	f043 0377 	orr.w	r3, r3, #119	; 0x77
 8001f94:	60fb      	str	r3, [r7, #12]
      htim->Instance->SMCR = tmpsmcr;
 8001f96:	687b      	ldr	r3, [r7, #4]
 8001f98:	681b      	ldr	r3, [r3, #0]
 8001f9a:	68fa      	ldr	r2, [r7, #12]
 8001f9c:	609a      	str	r2, [r3, #8]
      break;
 8001f9e:	e04c      	b.n	800203a <HAL_TIM_ConfigClockSource+0x154>
      TIM_ETR_SetConfig(htim->Instance,
 8001fa0:	687b      	ldr	r3, [r7, #4]
 8001fa2:	6818      	ldr	r0, [r3, #0]
 8001fa4:	683b      	ldr	r3, [r7, #0]
 8001fa6:	6899      	ldr	r1, [r3, #8]
 8001fa8:	683b      	ldr	r3, [r7, #0]
 8001faa:	685a      	ldr	r2, [r3, #4]
 8001fac:	683b      	ldr	r3, [r7, #0]
 8001fae:	68db      	ldr	r3, [r3, #12]
 8001fb0:	f000 f96a 	bl	8002288 <TIM_ETR_SetConfig>
      htim->Instance->SMCR |= TIM_SMCR_ECE;
 8001fb4:	687b      	ldr	r3, [r7, #4]
 8001fb6:	681b      	ldr	r3, [r3, #0]
 8001fb8:	689a      	ldr	r2, [r3, #8]
 8001fba:	687b      	ldr	r3, [r7, #4]
 8001fbc:	681b      	ldr	r3, [r3, #0]
 8001fbe:	f442 4280 	orr.w	r2, r2, #16384	; 0x4000
 8001fc2:	609a      	str	r2, [r3, #8]
      break;
 8001fc4:	e039      	b.n	800203a <HAL_TIM_ConfigClockSource+0x154>
      TIM_TI1_ConfigInputStage(htim->Instance,
 8001fc6:	687b      	ldr	r3, [r7, #4]
 8001fc8:	6818      	ldr	r0, [r3, #0]
 8001fca:	683b      	ldr	r3, [r7, #0]
 8001fcc:	6859      	ldr	r1, [r3, #4]
 8001fce:	683b      	ldr	r3, [r7, #0]
 8001fd0:	68db      	ldr	r3, [r3, #12]
 8001fd2:	461a      	mov	r2, r3
 8001fd4:	f000 f8de 	bl	8002194 <TIM_TI1_ConfigInputStage>
      TIM_ITRx_SetConfig(htim->Instance, TIM_CLOCKSOURCE_TI1);
 8001fd8:	687b      	ldr	r3, [r7, #4]
 8001fda:	681b      	ldr	r3, [r3, #0]
 8001fdc:	2150      	movs	r1, #80	; 0x50
 8001fde:	4618      	mov	r0, r3
 8001fe0:	f000 f937 	bl	8002252 <TIM_ITRx_SetConfig>
      break;
 8001fe4:	e029      	b.n	800203a <HAL_TIM_ConfigClockSource+0x154>
      TIM_TI2_ConfigInputStage(htim->Instance,
 8001fe6:	687b      	ldr	r3, [r7, #4]
 8001fe8:	6818      	ldr	r0, [r3, #0]
 8001fea:	683b      	ldr	r3, [r7, #0]
 8001fec:	6859      	ldr	r1, [r3, #4]
 8001fee:	683b      	ldr	r3, [r7, #0]
 8001ff0:	68db      	ldr	r3, [r3, #12]
 8001ff2:	461a      	mov	r2, r3
 8001ff4:	f000 f8fd 	bl	80021f2 <TIM_TI2_ConfigInputStage>
      TIM_ITRx_SetConfig(htim->Instance, TIM_CLOCKSOURCE_TI2);
 8001ff8:	687b      	ldr	r3, [r7, #4]
 8001ffa:	681b      	ldr	r3, [r3, #0]
 8001ffc:	2160      	movs	r1, #96	; 0x60
 8001ffe:	4618      	mov	r0, r3
 8002000:	f000 f927 	bl	8002252 <TIM_ITRx_SetConfig>
      break;
 8002004:	e019      	b.n	800203a <HAL_TIM_ConfigClockSource+0x154>
      TIM_TI1_ConfigInputStage(htim->Instance,
 8002006:	687b      	ldr	r3, [r7, #4]
 8002008:	6818      	ldr	r0, [r3, #0]
 800200a:	683b      	ldr	r3, [r7, #0]
 800200c:	6859      	ldr	r1, [r3, #4]
 800200e:	683b      	ldr	r3, [r7, #0]
 8002010:	68db      	ldr	r3, [r3, #12]
 8002012:	461a      	mov	r2, r3
 8002014:	f000 f8be 	bl	8002194 <TIM_TI1_ConfigInputStage>
      TIM_ITRx_SetConfig(htim->Instance, TIM_CLOCKSOURCE_TI1ED);
 8002018:	687b      	ldr	r3, [r7, #4]
 800201a:	681b      	ldr	r3, [r3, #0]
 800201c:	2140      	movs	r1, #64	; 0x40
 800201e:	4618      	mov	r0, r3
 8002020:	f000 f917 	bl	8002252 <TIM_ITRx_SetConfig>
      break;
 8002024:	e009      	b.n	800203a <HAL_TIM_ConfigClockSource+0x154>
      TIM_ITRx_SetConfig(htim->Instance, sClockSourceConfig->ClockSource);
 8002026:	687b      	ldr	r3, [r7, #4]
 8002028:	681a      	ldr	r2, [r3, #0]
 800202a:	683b      	ldr	r3, [r7, #0]
 800202c:	681b      	ldr	r3, [r3, #0]
 800202e:	4619      	mov	r1, r3
 8002030:	4610      	mov	r0, r2
 8002032:	f000 f90e 	bl	8002252 <TIM_ITRx_SetConfig>
      break;
 8002036:	e000      	b.n	800203a <HAL_TIM_ConfigClockSource+0x154>
      break;
 8002038:	bf00      	nop
  }
  htim->State = HAL_TIM_STATE_READY;
 800203a:	687b      	ldr	r3, [r7, #4]
 800203c:	2201      	movs	r2, #1
 800203e:	f883 203d 	strb.w	r2, [r3, #61]	; 0x3d

  __HAL_UNLOCK(htim);
 8002042:	687b      	ldr	r3, [r7, #4]
 8002044:	2200      	movs	r2, #0
 8002046:	f883 203c 	strb.w	r2, [r3, #60]	; 0x3c

  return HAL_OK;
 800204a:	2300      	movs	r3, #0
}
 800204c:	4618      	mov	r0, r3
 800204e:	3710      	adds	r7, #16
 8002050:	46bd      	mov	sp, r7
 8002052:	bd80      	pop	{r7, pc}

08002054 <TIM_Base_SetConfig>:
  * @param  TIMx TIM peripheral
  * @param  Structure TIM Base configuration structure
  * @retval None
  */
void TIM_Base_SetConfig(TIM_TypeDef *TIMx, TIM_Base_InitTypeDef *Structure)
{
 8002054:	b480      	push	{r7}
 8002056:	b085      	sub	sp, #20
 8002058:	af00      	add	r7, sp, #0
 800205a:	6078      	str	r0, [r7, #4]
 800205c:	6039      	str	r1, [r7, #0]
  uint32_t tmpcr1;
  tmpcr1 = TIMx->CR1;
 800205e:	687b      	ldr	r3, [r7, #4]
 8002060:	681b      	ldr	r3, [r3, #0]
 8002062:	60fb      	str	r3, [r7, #12]

  /* Set TIM Time Base Unit parameters ---------------------------------------*/
  if (IS_TIM_COUNTER_MODE_SELECT_INSTANCE(TIMx))
 8002064:	687b      	ldr	r3, [r7, #4]
 8002066:	4a40      	ldr	r2, [pc, #256]	; (8002168 <TIM_Base_SetConfig+0x114>)
 8002068:	4293      	cmp	r3, r2
 800206a:	d013      	beq.n	8002094 <TIM_Base_SetConfig+0x40>
 800206c:	687b      	ldr	r3, [r7, #4]
 800206e:	f1b3 4f80 	cmp.w	r3, #1073741824	; 0x40000000
 8002072:	d00f      	beq.n	8002094 <TIM_Base_SetConfig+0x40>
 8002074:	687b      	ldr	r3, [r7, #4]
 8002076:	4a3d      	ldr	r2, [pc, #244]	; (800216c <TIM_Base_SetConfig+0x118>)
 8002078:	4293      	cmp	r3, r2
 800207a:	d00b      	beq.n	8002094 <TIM_Base_SetConfig+0x40>
 800207c:	687b      	ldr	r3, [r7, #4]
 800207e:	4a3c      	ldr	r2, [pc, #240]	; (8002170 <TIM_Base_SetConfig+0x11c>)
 8002080:	4293      	cmp	r3, r2
 8002082:	d007      	beq.n	8002094 <TIM_Base_SetConfig+0x40>
 8002084:	687b      	ldr	r3, [r7, #4]
 8002086:	4a3b      	ldr	r2, [pc, #236]	; (8002174 <TIM_Base_SetConfig+0x120>)
 8002088:	4293      	cmp	r3, r2
 800208a:	d003      	beq.n	8002094 <TIM_Base_SetConfig+0x40>
 800208c:	687b      	ldr	r3, [r7, #4]
 800208e:	4a3a      	ldr	r2, [pc, #232]	; (8002178 <TIM_Base_SetConfig+0x124>)
 8002090:	4293      	cmp	r3, r2
 8002092:	d108      	bne.n	80020a6 <TIM_Base_SetConfig+0x52>
  {
    /* Select the Counter Mode */
    tmpcr1 &= ~(TIM_CR1_DIR | TIM_CR1_CMS);
 8002094:	68fb      	ldr	r3, [r7, #12]
 8002096:	f023 0370 	bic.w	r3, r3, #112	; 0x70
 800209a:	60fb      	str	r3, [r7, #12]
    tmpcr1 |= Structure->CounterMode;
 800209c:	683b      	ldr	r3, [r7, #0]
 800209e:	685b      	ldr	r3, [r3, #4]
 80020a0:	68fa      	ldr	r2, [r7, #12]
 80020a2:	4313      	orrs	r3, r2
 80020a4:	60fb      	str	r3, [r7, #12]
  }

  if (IS_TIM_CLOCK_DIVISION_INSTANCE(TIMx))
 80020a6:	687b      	ldr	r3, [r7, #4]
 80020a8:	4a2f      	ldr	r2, [pc, #188]	; (8002168 <TIM_Base_SetConfig+0x114>)
 80020aa:	4293      	cmp	r3, r2
 80020ac:	d02b      	beq.n	8002106 <TIM_Base_SetConfig+0xb2>
 80020ae:	687b      	ldr	r3, [r7, #4]
 80020b0:	f1b3 4f80 	cmp.w	r3, #1073741824	; 0x40000000
 80020b4:	d027      	beq.n	8002106 <TIM_Base_SetConfig+0xb2>
 80020b6:	687b      	ldr	r3, [r7, #4]
 80020b8:	4a2c      	ldr	r2, [pc, #176]	; (800216c <TIM_Base_SetConfig+0x118>)
 80020ba:	4293      	cmp	r3, r2
 80020bc:	d023      	beq.n	8002106 <TIM_Base_SetConfig+0xb2>
 80020be:	687b      	ldr	r3, [r7, #4]
 80020c0:	4a2b      	ldr	r2, [pc, #172]	; (8002170 <TIM_Base_SetConfig+0x11c>)
 80020c2:	4293      	cmp	r3, r2
 80020c4:	d01f      	beq.n	8002106 <TIM_Base_SetConfig+0xb2>
 80020c6:	687b      	ldr	r3, [r7, #4]
 80020c8:	4a2a      	ldr	r2, [pc, #168]	; (8002174 <TIM_Base_SetConfig+0x120>)
 80020ca:	4293      	cmp	r3, r2
 80020cc:	d01b      	beq.n	8002106 <TIM_Base_SetConfig+0xb2>
 80020ce:	687b      	ldr	r3, [r7, #4]
 80020d0:	4a29      	ldr	r2, [pc, #164]	; (8002178 <TIM_Base_SetConfig+0x124>)
 80020d2:	4293      	cmp	r3, r2
 80020d4:	d017      	beq.n	8002106 <TIM_Base_SetConfig+0xb2>
 80020d6:	687b      	ldr	r3, [r7, #4]
 80020d8:	4a28      	ldr	r2, [pc, #160]	; (800217c <TIM_Base_SetConfig+0x128>)
 80020da:	4293      	cmp	r3, r2
 80020dc:	d013      	beq.n	8002106 <TIM_Base_SetConfig+0xb2>
 80020de:	687b      	ldr	r3, [r7, #4]
 80020e0:	4a27      	ldr	r2, [pc, #156]	; (8002180 <TIM_Base_SetConfig+0x12c>)
 80020e2:	4293      	cmp	r3, r2
 80020e4:	d00f      	beq.n	8002106 <TIM_Base_SetConfig+0xb2>
 80020e6:	687b      	ldr	r3, [r7, #4]
 80020e8:	4a26      	ldr	r2, [pc, #152]	; (8002184 <TIM_Base_SetConfig+0x130>)
 80020ea:	4293      	cmp	r3, r2
 80020ec:	d00b      	beq.n	8002106 <TIM_Base_SetConfig+0xb2>
 80020ee:	687b      	ldr	r3, [r7, #4]
 80020f0:	4a25      	ldr	r2, [pc, #148]	; (8002188 <TIM_Base_SetConfig+0x134>)
 80020f2:	4293      	cmp	r3, r2
 80020f4:	d007      	beq.n	8002106 <TIM_Base_SetConfig+0xb2>
 80020f6:	687b      	ldr	r3, [r7, #4]
 80020f8:	4a24      	ldr	r2, [pc, #144]	; (800218c <TIM_Base_SetConfig+0x138>)
 80020fa:	4293      	cmp	r3, r2
 80020fc:	d003      	beq.n	8002106 <TIM_Base_SetConfig+0xb2>
 80020fe:	687b      	ldr	r3, [r7, #4]
 8002100:	4a23      	ldr	r2, [pc, #140]	; (8002190 <TIM_Base_SetConfig+0x13c>)
 8002102:	4293      	cmp	r3, r2
 8002104:	d108      	bne.n	8002118 <TIM_Base_SetConfig+0xc4>
  {
    /* Set the clock division */
    tmpcr1 &= ~TIM_CR1_CKD;
 8002106:	68fb      	ldr	r3, [r7, #12]
 8002108:	f423 7340 	bic.w	r3, r3, #768	; 0x300
 800210c:	60fb      	str	r3, [r7, #12]
    tmpcr1 |= (uint32_t)Structure->ClockDivision;
 800210e:	683b      	ldr	r3, [r7, #0]
 8002110:	68db      	ldr	r3, [r3, #12]
 8002112:	68fa      	ldr	r2, [r7, #12]
 8002114:	4313      	orrs	r3, r2
 8002116:	60fb      	str	r3, [r7, #12]
  }

  /* Set the auto-reload preload */
  MODIFY_REG(tmpcr1, TIM_CR1_ARPE, Structure->AutoReloadPreload);
 8002118:	68fb      	ldr	r3, [r7, #12]
 800211a:	f023 0280 	bic.w	r2, r3, #128	; 0x80
 800211e:	683b      	ldr	r3, [r7, #0]
 8002120:	695b      	ldr	r3, [r3, #20]
 8002122:	4313      	orrs	r3, r2
 8002124:	60fb      	str	r3, [r7, #12]

  TIMx->CR1 = tmpcr1;
 8002126:	687b      	ldr	r3, [r7, #4]
 8002128:	68fa      	ldr	r2, [r7, #12]
 800212a:	601a      	str	r2, [r3, #0]

  /* Set the Autoreload value */
  TIMx->ARR = (uint32_t)Structure->Period ;
 800212c:	683b      	ldr	r3, [r7, #0]
 800212e:	689a      	ldr	r2, [r3, #8]
 8002130:	687b      	ldr	r3, [r7, #4]
 8002132:	62da      	str	r2, [r3, #44]	; 0x2c

  /* Set the Prescaler value */
  TIMx->PSC = Structure->Prescaler;
 8002134:	683b      	ldr	r3, [r7, #0]
 8002136:	681a      	ldr	r2, [r3, #0]
 8002138:	687b      	ldr	r3, [r7, #4]
 800213a:	629a      	str	r2, [r3, #40]	; 0x28

  if (IS_TIM_REPETITION_COUNTER_INSTANCE(TIMx))
 800213c:	687b      	ldr	r3, [r7, #4]
 800213e:	4a0a      	ldr	r2, [pc, #40]	; (8002168 <TIM_Base_SetConfig+0x114>)
 8002140:	4293      	cmp	r3, r2
 8002142:	d003      	beq.n	800214c <TIM_Base_SetConfig+0xf8>
 8002144:	687b      	ldr	r3, [r7, #4]
 8002146:	4a0c      	ldr	r2, [pc, #48]	; (8002178 <TIM_Base_SetConfig+0x124>)
 8002148:	4293      	cmp	r3, r2
 800214a:	d103      	bne.n	8002154 <TIM_Base_SetConfig+0x100>
  {
    /* Set the Repetition Counter value */
    TIMx->RCR = Structure->RepetitionCounter;
 800214c:	683b      	ldr	r3, [r7, #0]
 800214e:	691a      	ldr	r2, [r3, #16]
 8002150:	687b      	ldr	r3, [r7, #4]
 8002152:	631a      	str	r2, [r3, #48]	; 0x30
  }

  /* Generate an update event to reload the Prescaler
     and the repetition counter (only for advanced timer) value immediately */
  TIMx->EGR = TIM_EGR_UG;
 8002154:	687b      	ldr	r3, [r7, #4]
 8002156:	2201      	movs	r2, #1
 8002158:	615a      	str	r2, [r3, #20]
}
 800215a:	bf00      	nop
 800215c:	3714      	adds	r7, #20
 800215e:	46bd      	mov	sp, r7
 8002160:	f85d 7b04 	ldr.w	r7, [sp], #4
 8002164:	4770      	bx	lr
 8002166:	bf00      	nop
 8002168:	40010000 	.word	0x40010000
 800216c:	40000400 	.word	0x40000400
 8002170:	40000800 	.word	0x40000800
 8002174:	40000c00 	.word	0x40000c00
 8002178:	40010400 	.word	0x40010400
 800217c:	40014000 	.word	0x40014000
 8002180:	40014400 	.word	0x40014400
 8002184:	40014800 	.word	0x40014800
 8002188:	40001800 	.word	0x40001800
 800218c:	40001c00 	.word	0x40001c00
 8002190:	40002000 	.word	0x40002000

08002194 <TIM_TI1_ConfigInputStage>:
  * @param  TIM_ICFilter Specifies the Input Capture Filter.
  *          This parameter must be a value between 0x00 and 0x0F.
  * @retval None
  */
static void TIM_TI1_ConfigInputStage(TIM_TypeDef *TIMx, uint32_t TIM_ICPolarity, uint32_t TIM_ICFilter)
{
 8002194:	b480      	push	{r7}
 8002196:	b087      	sub	sp, #28
 8002198:	af00      	add	r7, sp, #0
 800219a:	60f8      	str	r0, [r7, #12]
 800219c:	60b9      	str	r1, [r7, #8]
 800219e:	607a      	str	r2, [r7, #4]
  uint32_t tmpccmr1;
  uint32_t tmpccer;

  /* Disable the Channel 1: Reset the CC1E Bit */
  tmpccer = TIMx->CCER;
 80021a0:	68fb      	ldr	r3, [r7, #12]
 80021a2:	6a1b      	ldr	r3, [r3, #32]
 80021a4:	617b      	str	r3, [r7, #20]
  TIMx->CCER &= ~TIM_CCER_CC1E;
 80021a6:	68fb      	ldr	r3, [r7, #12]
 80021a8:	6a1b      	ldr	r3, [r3, #32]
 80021aa:	f023 0201 	bic.w	r2, r3, #1
 80021ae:	68fb      	ldr	r3, [r7, #12]
 80021b0:	621a      	str	r2, [r3, #32]
  tmpccmr1 = TIMx->CCMR1;
 80021b2:	68fb      	ldr	r3, [r7, #12]
 80021b4:	699b      	ldr	r3, [r3, #24]
 80021b6:	613b      	str	r3, [r7, #16]

  /* Set the filter */
  tmpccmr1 &= ~TIM_CCMR1_IC1F;
 80021b8:	693b      	ldr	r3, [r7, #16]
 80021ba:	f023 03f0 	bic.w	r3, r3, #240	; 0xf0
 80021be:	613b      	str	r3, [r7, #16]
  tmpccmr1 |= (TIM_ICFilter << 4U);
 80021c0:	687b      	ldr	r3, [r7, #4]
 80021c2:	011b      	lsls	r3, r3, #4
 80021c4:	693a      	ldr	r2, [r7, #16]
 80021c6:	4313      	orrs	r3, r2
 80021c8:	613b      	str	r3, [r7, #16]

  /* Select the Polarity and set the CC1E Bit */
  tmpccer &= ~(TIM_CCER_CC1P | TIM_CCER_CC1NP);
 80021ca:	697b      	ldr	r3, [r7, #20]
 80021cc:	f023 030a 	bic.w	r3, r3, #10
 80021d0:	617b      	str	r3, [r7, #20]
  tmpccer |= TIM_ICPolarity;
 80021d2:	697a      	ldr	r2, [r7, #20]
 80021d4:	68bb      	ldr	r3, [r7, #8]
 80021d6:	4313      	orrs	r3, r2
 80021d8:	617b      	str	r3, [r7, #20]

  /* Write to TIMx CCMR1 and CCER registers */
  TIMx->CCMR1 = tmpccmr1;
 80021da:	68fb      	ldr	r3, [r7, #12]
 80021dc:	693a      	ldr	r2, [r7, #16]
 80021de:	619a      	str	r2, [r3, #24]
  TIMx->CCER = tmpccer;
 80021e0:	68fb      	ldr	r3, [r7, #12]
 80021e2:	697a      	ldr	r2, [r7, #20]
 80021e4:	621a      	str	r2, [r3, #32]
}
 80021e6:	bf00      	nop
 80021e8:	371c      	adds	r7, #28
 80021ea:	46bd      	mov	sp, r7
 80021ec:	f85d 7b04 	ldr.w	r7, [sp], #4
 80021f0:	4770      	bx	lr

080021f2 <TIM_TI2_ConfigInputStage>:
  * @param  TIM_ICFilter Specifies the Input Capture Filter.
  *          This parameter must be a value between 0x00 and 0x0F.
  * @retval None
  */
static void TIM_TI2_ConfigInputStage(TIM_TypeDef *TIMx, uint32_t TIM_ICPolarity, uint32_t TIM_ICFilter)
{
 80021f2:	b480      	push	{r7}
 80021f4:	b087      	sub	sp, #28
 80021f6:	af00      	add	r7, sp, #0
 80021f8:	60f8      	str	r0, [r7, #12]
 80021fa:	60b9      	str	r1, [r7, #8]
 80021fc:	607a      	str	r2, [r7, #4]
  uint32_t tmpccmr1;
  uint32_t tmpccer;

  /* Disable the Channel 2: Reset the CC2E Bit */
  TIMx->CCER &= ~TIM_CCER_CC2E;
 80021fe:	68fb      	ldr	r3, [r7, #12]
 8002200:	6a1b      	ldr	r3, [r3, #32]
 8002202:	f023 0210 	bic.w	r2, r3, #16
 8002206:	68fb      	ldr	r3, [r7, #12]
 8002208:	621a      	str	r2, [r3, #32]
  tmpccmr1 = TIMx->CCMR1;
 800220a:	68fb      	ldr	r3, [r7, #12]
 800220c:	699b      	ldr	r3, [r3, #24]
 800220e:	617b      	str	r3, [r7, #20]
  tmpccer = TIMx->CCER;
 8002210:	68fb      	ldr	r3, [r7, #12]
 8002212:	6a1b      	ldr	r3, [r3, #32]
 8002214:	613b      	str	r3, [r7, #16]

  /* Set the filter */
  tmpccmr1 &= ~TIM_CCMR1_IC2F;
 8002216:	697b      	ldr	r3, [r7, #20]
 8002218:	f423 4370 	bic.w	r3, r3, #61440	; 0xf000
 800221c:	617b      	str	r3, [r7, #20]
  tmpccmr1 |= (TIM_ICFilter << 12U);
 800221e:	687b      	ldr	r3, [r7, #4]
 8002220:	031b      	lsls	r3, r3, #12
 8002222:	697a      	ldr	r2, [r7, #20]
 8002224:	4313      	orrs	r3, r2
 8002226:	617b      	str	r3, [r7, #20]

  /* Select the Polarity and set the CC2E Bit */
  tmpccer &= ~(TIM_CCER_CC2P | TIM_CCER_CC2NP);
 8002228:	693b      	ldr	r3, [r7, #16]
 800222a:	f023 03a0 	bic.w	r3, r3, #160	; 0xa0
 800222e:	613b      	str	r3, [r7, #16]
  tmpccer |= (TIM_ICPolarity << 4U);
 8002230:	68bb      	ldr	r3, [r7, #8]
 8002232:	011b      	lsls	r3, r3, #4
 8002234:	693a      	ldr	r2, [r7, #16]
 8002236:	4313      	orrs	r3, r2
 8002238:	613b      	str	r3, [r7, #16]

  /* Write to TIMx CCMR1 and CCER registers */
  TIMx->CCMR1 = tmpccmr1 ;
 800223a:	68fb      	ldr	r3, [r7, #12]
 800223c:	697a      	ldr	r2, [r7, #20]
 800223e:	619a      	str	r2, [r3, #24]
  TIMx->CCER = tmpccer;
 8002240:	68fb      	ldr	r3, [r7, #12]
 8002242:	693a      	ldr	r2, [r7, #16]
 8002244:	621a      	str	r2, [r3, #32]
}
 8002246:	bf00      	nop
 8002248:	371c      	adds	r7, #28
 800224a:	46bd      	mov	sp, r7
 800224c:	f85d 7b04 	ldr.w	r7, [sp], #4
 8002250:	4770      	bx	lr

08002252 <TIM_ITRx_SetConfig>:
  *            @arg TIM_TS_TI2FP2: Filtered Timer Input 2
  *            @arg TIM_TS_ETRF: External Trigger input
  * @retval None
  */
static void TIM_ITRx_SetConfig(TIM_TypeDef *TIMx, uint32_t InputTriggerSource)
{
 8002252:	b480      	push	{r7}
 8002254:	b085      	sub	sp, #20
 8002256:	af00      	add	r7, sp, #0
 8002258:	6078      	str	r0, [r7, #4]
 800225a:	6039      	str	r1, [r7, #0]
  uint32_t tmpsmcr;

  /* Get the TIMx SMCR register value */
  tmpsmcr = TIMx->SMCR;
 800225c:	687b      	ldr	r3, [r7, #4]
 800225e:	689b      	ldr	r3, [r3, #8]
 8002260:	60fb      	str	r3, [r7, #12]
  /* Reset the TS Bits */
  tmpsmcr &= ~TIM_SMCR_TS;
 8002262:	68fb      	ldr	r3, [r7, #12]
 8002264:	f023 0370 	bic.w	r3, r3, #112	; 0x70
 8002268:	60fb      	str	r3, [r7, #12]
  /* Set the Input Trigger source and the slave mode*/
  tmpsmcr |= (InputTriggerSource | TIM_SLAVEMODE_EXTERNAL1);
 800226a:	683a      	ldr	r2, [r7, #0]
 800226c:	68fb      	ldr	r3, [r7, #12]
 800226e:	4313      	orrs	r3, r2
 8002270:	f043 0307 	orr.w	r3, r3, #7
 8002274:	60fb      	str	r3, [r7, #12]
  /* Write to TIMx SMCR */
  TIMx->SMCR = tmpsmcr;
 8002276:	687b      	ldr	r3, [r7, #4]
 8002278:	68fa      	ldr	r2, [r7, #12]
 800227a:	609a      	str	r2, [r3, #8]
}
 800227c:	bf00      	nop
 800227e:	3714      	adds	r7, #20
 8002280:	46bd      	mov	sp, r7
 8002282:	f85d 7b04 	ldr.w	r7, [sp], #4
 8002286:	4770      	bx	lr

08002288 <TIM_ETR_SetConfig>:
  *          This parameter must be a value between 0x00 and 0x0F
  * @retval None
  */
void TIM_ETR_SetConfig(TIM_TypeDef *TIMx, uint32_t TIM_ExtTRGPrescaler,
                       uint32_t TIM_ExtTRGPolarity, uint32_t ExtTRGFilter)
{
 8002288:	b480      	push	{r7}
 800228a:	b087      	sub	sp, #28
 800228c:	af00      	add	r7, sp, #0
 800228e:	60f8      	str	r0, [r7, #12]
 8002290:	60b9      	str	r1, [r7, #8]
 8002292:	607a      	str	r2, [r7, #4]
 8002294:	603b      	str	r3, [r7, #0]
  uint32_t tmpsmcr;

  tmpsmcr = TIMx->SMCR;
 8002296:	68fb      	ldr	r3, [r7, #12]
 8002298:	689b      	ldr	r3, [r3, #8]
 800229a:	617b      	str	r3, [r7, #20]

  /* Reset the ETR Bits */
  tmpsmcr &= ~(TIM_SMCR_ETF | TIM_SMCR_ETPS | TIM_SMCR_ECE | TIM_SMCR_ETP);
 800229c:	697b      	ldr	r3, [r7, #20]
 800229e:	f423 437f 	bic.w	r3, r3, #65280	; 0xff00
 80022a2:	617b      	str	r3, [r7, #20]

  /* Set the Prescaler, the Filter value and the Polarity */
  tmpsmcr |= (uint32_t)(TIM_ExtTRGPrescaler | (TIM_ExtTRGPolarity | (ExtTRGFilter << 8U)));
 80022a4:	683b      	ldr	r3, [r7, #0]
 80022a6:	021a      	lsls	r2, r3, #8
 80022a8:	687b      	ldr	r3, [r7, #4]
 80022aa:	431a      	orrs	r2, r3
 80022ac:	68bb      	ldr	r3, [r7, #8]
 80022ae:	4313      	orrs	r3, r2
 80022b0:	697a      	ldr	r2, [r7, #20]
 80022b2:	4313      	orrs	r3, r2
 80022b4:	617b      	str	r3, [r7, #20]

  /* Write to TIMx SMCR */
  TIMx->SMCR = tmpsmcr;
 80022b6:	68fb      	ldr	r3, [r7, #12]
 80022b8:	697a      	ldr	r2, [r7, #20]
 80022ba:	609a      	str	r2, [r3, #8]
}
 80022bc:	bf00      	nop
 80022be:	371c      	adds	r7, #28
 80022c0:	46bd      	mov	sp, r7
 80022c2:	f85d 7b04 	ldr.w	r7, [sp], #4
 80022c6:	4770      	bx	lr

080022c8 <HAL_TIMEx_MasterConfigSynchronization>:
  *         mode.
  * @retval HAL status
  */
HAL_StatusTypeDef HAL_TIMEx_MasterConfigSynchronization(TIM_HandleTypeDef *htim,
                                                        TIM_MasterConfigTypeDef *sMasterConfig)
{
 80022c8:	b480      	push	{r7}
 80022ca:	b085      	sub	sp, #20
 80022cc:	af00      	add	r7, sp, #0
 80022ce:	6078      	str	r0, [r7, #4]
 80022d0:	6039      	str	r1, [r7, #0]
  assert_param(IS_TIM_MASTER_INSTANCE(htim->Instance));
  assert_param(IS_TIM_TRGO_SOURCE(sMasterConfig->MasterOutputTrigger));
  assert_param(IS_TIM_MSM_STATE(sMasterConfig->MasterSlaveMode));

  /* Check input state */
  __HAL_LOCK(htim);
 80022d2:	687b      	ldr	r3, [r7, #4]
 80022d4:	f893 303c 	ldrb.w	r3, [r3, #60]	; 0x3c
 80022d8:	2b01      	cmp	r3, #1
 80022da:	d101      	bne.n	80022e0 <HAL_TIMEx_MasterConfigSynchronization+0x18>
 80022dc:	2302      	movs	r3, #2
 80022de:	e05a      	b.n	8002396 <HAL_TIMEx_MasterConfigSynchronization+0xce>
 80022e0:	687b      	ldr	r3, [r7, #4]
 80022e2:	2201      	movs	r2, #1
 80022e4:	f883 203c 	strb.w	r2, [r3, #60]	; 0x3c

  /* Change the handler state */
  htim->State = HAL_TIM_STATE_BUSY;
 80022e8:	687b      	ldr	r3, [r7, #4]
 80022ea:	2202      	movs	r2, #2
 80022ec:	f883 203d 	strb.w	r2, [r3, #61]	; 0x3d

  /* Get the TIMx CR2 register value */
  tmpcr2 = htim->Instance->CR2;
 80022f0:	687b      	ldr	r3, [r7, #4]
 80022f2:	681b      	ldr	r3, [r3, #0]
 80022f4:	685b      	ldr	r3, [r3, #4]
 80022f6:	60fb      	str	r3, [r7, #12]

  /* Get the TIMx SMCR register value */
  tmpsmcr = htim->Instance->SMCR;
 80022f8:	687b      	ldr	r3, [r7, #4]
 80022fa:	681b      	ldr	r3, [r3, #0]
 80022fc:	689b      	ldr	r3, [r3, #8]
 80022fe:	60bb      	str	r3, [r7, #8]

  /* Reset the MMS Bits */
  tmpcr2 &= ~TIM_CR2_MMS;
 8002300:	68fb      	ldr	r3, [r7, #12]
 8002302:	f023 0370 	bic.w	r3, r3, #112	; 0x70
 8002306:	60fb      	str	r3, [r7, #12]
  /* Select the TRGO source */
  tmpcr2 |=  sMasterConfig->MasterOutputTrigger;
 8002308:	683b      	ldr	r3, [r7, #0]
 800230a:	681b      	ldr	r3, [r3, #0]
 800230c:	68fa      	ldr	r2, [r7, #12]
 800230e:	4313      	orrs	r3, r2
 8002310:	60fb      	str	r3, [r7, #12]

  /* Update TIMx CR2 */
  htim->Instance->CR2 = tmpcr2;
 8002312:	687b      	ldr	r3, [r7, #4]
 8002314:	681b      	ldr	r3, [r3, #0]
 8002316:	68fa      	ldr	r2, [r7, #12]
 8002318:	605a      	str	r2, [r3, #4]

  if (IS_TIM_SLAVE_INSTANCE(htim->Instance))
 800231a:	687b      	ldr	r3, [r7, #4]
 800231c:	681b      	ldr	r3, [r3, #0]
 800231e:	4a21      	ldr	r2, [pc, #132]	; (80023a4 <HAL_TIMEx_MasterConfigSynchronization+0xdc>)
 8002320:	4293      	cmp	r3, r2
 8002322:	d022      	beq.n	800236a <HAL_TIMEx_MasterConfigSynchronization+0xa2>
 8002324:	687b      	ldr	r3, [r7, #4]
 8002326:	681b      	ldr	r3, [r3, #0]
 8002328:	f1b3 4f80 	cmp.w	r3, #1073741824	; 0x40000000
 800232c:	d01d      	beq.n	800236a <HAL_TIMEx_MasterConfigSynchronization+0xa2>
 800232e:	687b      	ldr	r3, [r7, #4]
 8002330:	681b      	ldr	r3, [r3, #0]
 8002332:	4a1d      	ldr	r2, [pc, #116]	; (80023a8 <HAL_TIMEx_MasterConfigSynchronization+0xe0>)
 8002334:	4293      	cmp	r3, r2
 8002336:	d018      	beq.n	800236a <HAL_TIMEx_MasterConfigSynchronization+0xa2>
 8002338:	687b      	ldr	r3, [r7, #4]
 800233a:	681b      	ldr	r3, [r3, #0]
 800233c:	4a1b      	ldr	r2, [pc, #108]	; (80023ac <HAL_TIMEx_MasterConfigSynchronization+0xe4>)
 800233e:	4293      	cmp	r3, r2
 8002340:	d013      	beq.n	800236a <HAL_TIMEx_MasterConfigSynchronization+0xa2>
 8002342:	687b      	ldr	r3, [r7, #4]
 8002344:	681b      	ldr	r3, [r3, #0]
 8002346:	4a1a      	ldr	r2, [pc, #104]	; (80023b0 <HAL_TIMEx_MasterConfigSynchronization+0xe8>)
 8002348:	4293      	cmp	r3, r2
 800234a:	d00e      	beq.n	800236a <HAL_TIMEx_MasterConfigSynchronization+0xa2>
 800234c:	687b      	ldr	r3, [r7, #4]
 800234e:	681b      	ldr	r3, [r3, #0]
 8002350:	4a18      	ldr	r2, [pc, #96]	; (80023b4 <HAL_TIMEx_MasterConfigSynchronization+0xec>)
 8002352:	4293      	cmp	r3, r2
 8002354:	d009      	beq.n	800236a <HAL_TIMEx_MasterConfigSynchronization+0xa2>
 8002356:	687b      	ldr	r3, [r7, #4]
 8002358:	681b      	ldr	r3, [r3, #0]
 800235a:	4a17      	ldr	r2, [pc, #92]	; (80023b8 <HAL_TIMEx_MasterConfigSynchronization+0xf0>)
 800235c:	4293      	cmp	r3, r2
 800235e:	d004      	beq.n	800236a <HAL_TIMEx_MasterConfigSynchronization+0xa2>
 8002360:	687b      	ldr	r3, [r7, #4]
 8002362:	681b      	ldr	r3, [r3, #0]
 8002364:	4a15      	ldr	r2, [pc, #84]	; (80023bc <HAL_TIMEx_MasterConfigSynchronization+0xf4>)
 8002366:	4293      	cmp	r3, r2
 8002368:	d10c      	bne.n	8002384 <HAL_TIMEx_MasterConfigSynchronization+0xbc>
  {
    /* Reset the MSM Bit */
    tmpsmcr &= ~TIM_SMCR_MSM;
 800236a:	68bb      	ldr	r3, [r7, #8]
 800236c:	f023 0380 	bic.w	r3, r3, #128	; 0x80
 8002370:	60bb      	str	r3, [r7, #8]
    /* Set master mode */
    tmpsmcr |= sMasterConfig->MasterSlaveMode;
 8002372:	683b      	ldr	r3, [r7, #0]
 8002374:	685b      	ldr	r3, [r3, #4]
 8002376:	68ba      	ldr	r2, [r7, #8]
 8002378:	4313      	orrs	r3, r2
 800237a:	60bb      	str	r3, [r7, #8]

    /* Update TIMx SMCR */
    htim->Instance->SMCR = tmpsmcr;
 800237c:	687b      	ldr	r3, [r7, #4]
 800237e:	681b      	ldr	r3, [r3, #0]
 8002380:	68ba      	ldr	r2, [r7, #8]
 8002382:	609a      	str	r2, [r3, #8]
  }

  /* Change the htim state */
  htim->State = HAL_TIM_STATE_READY;
 8002384:	687b      	ldr	r3, [r7, #4]
 8002386:	2201      	movs	r2, #1
 8002388:	f883 203d 	strb.w	r2, [r3, #61]	; 0x3d

  __HAL_UNLOCK(htim);
 800238c:	687b      	ldr	r3, [r7, #4]
 800238e:	2200      	movs	r2, #0
 8002390:	f883 203c 	strb.w	r2, [r3, #60]	; 0x3c

  return HAL_OK;
 8002394:	2300      	movs	r3, #0
}
 8002396:	4618      	mov	r0, r3
 8002398:	3714      	adds	r7, #20
 800239a:	46bd      	mov	sp, r7
 800239c:	f85d 7b04 	ldr.w	r7, [sp], #4
 80023a0:	4770      	bx	lr
 80023a2:	bf00      	nop
 80023a4:	40010000 	.word	0x40010000
 80023a8:	40000400 	.word	0x40000400
 80023ac:	40000800 	.word	0x40000800
 80023b0:	40000c00 	.word	0x40000c00
 80023b4:	40010400 	.word	0x40010400
 80023b8:	40014000 	.word	0x40014000
 80023bc:	40001800 	.word	0x40001800

080023c0 <__libc_init_array>:
 80023c0:	b570      	push	{r4, r5, r6, lr}
 80023c2:	4e0d      	ldr	r6, [pc, #52]	; (80023f8 <__libc_init_array+0x38>)
 80023c4:	4c0d      	ldr	r4, [pc, #52]	; (80023fc <__libc_init_array+0x3c>)
 80023c6:	1ba4      	subs	r4, r4, r6
 80023c8:	10a4      	asrs	r4, r4, #2
 80023ca:	2500      	movs	r5, #0
 80023cc:	42a5      	cmp	r5, r4
 80023ce:	d109      	bne.n	80023e4 <__libc_init_array+0x24>
 80023d0:	4e0b      	ldr	r6, [pc, #44]	; (8002400 <__libc_init_array+0x40>)
 80023d2:	4c0c      	ldr	r4, [pc, #48]	; (8002404 <__libc_init_array+0x44>)
 80023d4:	f000 f820 	bl	8002418 <_init>
 80023d8:	1ba4      	subs	r4, r4, r6
 80023da:	10a4      	asrs	r4, r4, #2
 80023dc:	2500      	movs	r5, #0
 80023de:	42a5      	cmp	r5, r4
 80023e0:	d105      	bne.n	80023ee <__libc_init_array+0x2e>
 80023e2:	bd70      	pop	{r4, r5, r6, pc}
 80023e4:	f856 3025 	ldr.w	r3, [r6, r5, lsl #2]
 80023e8:	4798      	blx	r3
 80023ea:	3501      	adds	r5, #1
 80023ec:	e7ee      	b.n	80023cc <__libc_init_array+0xc>
 80023ee:	f856 3025 	ldr.w	r3, [r6, r5, lsl #2]
 80023f2:	4798      	blx	r3
 80023f4:	3501      	adds	r5, #1
 80023f6:	e7f2      	b.n	80023de <__libc_init_array+0x1e>
 80023f8:	08002448 	.word	0x08002448
 80023fc:	08002448 	.word	0x08002448
 8002400:	08002448 	.word	0x08002448
 8002404:	0800244c 	.word	0x0800244c

08002408 <memset>:
 8002408:	4402      	add	r2, r0
 800240a:	4603      	mov	r3, r0
 800240c:	4293      	cmp	r3, r2
 800240e:	d100      	bne.n	8002412 <memset+0xa>
 8002410:	4770      	bx	lr
 8002412:	f803 1b01 	strb.w	r1, [r3], #1
 8002416:	e7f9      	b.n	800240c <memset+0x4>

08002418 <_init>:
 8002418:	b5f8      	push	{r3, r4, r5, r6, r7, lr}
 800241a:	bf00      	nop
 800241c:	bcf8      	pop	{r3, r4, r5, r6, r7}
 800241e:	bc08      	pop	{r3}
 8002420:	469e      	mov	lr, r3
 8002422:	4770      	bx	lr

08002424 <_fini>:
 8002424:	b5f8      	push	{r3, r4, r5, r6, r7, lr}
 8002426:	bf00      	nop
 8002428:	bcf8      	pop	{r3, r4, r5, r6, r7}
 800242a:	bc08      	pop	{r3}
 800242c:	469e      	mov	lr, r3
 800242e:	4770      	bx	lr
